
D:/Projects/Programming/CatalysisTFS/Catalysis/dsPicProg/dist/default/production/dsPicProg.production.cof:     file format coff-pic30

Disassembly of section .ivt._ADC1Interrupt:

0000002e <.ivt._ADC1Interrupt>:
  2e:	3c 05 00    	nop       
Disassembly of section .ivt._AddressError:

00000008 <.ivt._AddressError>:
   8:	3c 05 00    	nop       
Disassembly of section .aivt._AltADC1Interrupt:

0000012e <.aivt._AltADC1Interrupt>:
 12e:	3c 05 00    	nop       
Disassembly of section .aivt._AltAddressError:

00000108 <.aivt._AltAddressError>:
 108:	3c 05 00    	nop       
Disassembly of section .aivt._AltC1Interrupt:

0000015a <.aivt._AltC1Interrupt>:
 15a:	3c 05 00    	nop       
Disassembly of section .aivt._AltC1RxRdyInterrupt:

00000158 <.aivt._AltC1RxRdyInterrupt>:
 158:	3c 05 00    	nop       
Disassembly of section .aivt._AltC1TxReqInterrupt:

000001a0 <.aivt._AltC1TxReqInterrupt>:
 1a0:	3c 05 00    	nop       
Disassembly of section .aivt._AltCMPInterrupt:

00000138 <.aivt._AltCMPInterrupt>:
 138:	3c 05 00    	nop       
Disassembly of section .aivt._AltCNInterrupt:

0000013a <.aivt._AltCNInterrupt>:
 13a:	3c 05 00    	nop       
Disassembly of section .aivt._AltCRCInterrupt:

0000019a <.aivt._AltCRCInterrupt>:
 19a:	3c 05 00    	nop       
Disassembly of section .aivt._AltDAC1LInterrupt:

000001b2 <.aivt._AltDAC1LInterrupt>:
 1b2:	3c 05 00    	nop       
Disassembly of section .aivt._AltDAC1RInterrupt:

000001b0 <.aivt._AltDAC1RInterrupt>:
 1b0:	3c 05 00    	nop       
Disassembly of section .aivt._AltDMA0Interrupt:

0000011c <.aivt._AltDMA0Interrupt>:
 11c:	3c 05 00    	nop       
Disassembly of section .aivt._AltDMA1Interrupt:

00000130 <.aivt._AltDMA1Interrupt>:
 130:	3c 05 00    	nop       
Disassembly of section .aivt._AltDMA2Interrupt:

00000144 <.aivt._AltDMA2Interrupt>:
 144:	3c 05 00    	nop       
Disassembly of section .aivt._AltDMA3Interrupt:

0000015c <.aivt._AltDMA3Interrupt>:
 15c:	3c 05 00    	nop       
Disassembly of section .aivt._AltDMA4Interrupt:

00000170 <.aivt._AltDMA4Interrupt>:
 170:	3c 05 00    	nop       
Disassembly of section .aivt._AltDMA5Interrupt:

0000018e <.aivt._AltDMA5Interrupt>:
 18e:	3c 05 00    	nop       
Disassembly of section .aivt._AltDMA6Interrupt:

0000019c <.aivt._AltDMA6Interrupt>:
 19c:	3c 05 00    	nop       
Disassembly of section .aivt._AltDMA7Interrupt:

0000019e <.aivt._AltDMA7Interrupt>:
 19e:	3c 05 00    	nop       
Disassembly of section .aivt._AltDMACError:

0000010e <.aivt._AltDMACError>:
 10e:	3c 05 00    	nop       
Disassembly of section .aivt._AltFLTA1Interrupt:

00000192 <.aivt._AltFLTA1Interrupt>:
 192:	3c 05 00    	nop       
Disassembly of section .aivt._AltFLTA2Interrupt:

000001a8 <.aivt._AltFLTA2Interrupt>:
 1a8:	3c 05 00    	nop       
Disassembly of section .aivt._AltIC1Interrupt:

00000116 <.aivt._AltIC1Interrupt>:
 116:	3c 05 00    	nop       
Disassembly of section .aivt._AltIC2Interrupt:

0000011e <.aivt._AltIC2Interrupt>:
 11e:	3c 05 00    	nop       
Disassembly of section .aivt._AltIC7Interrupt:

00000140 <.aivt._AltIC7Interrupt>:
 140:	3c 05 00    	nop       
Disassembly of section .aivt._AltIC8Interrupt:

00000142 <.aivt._AltIC8Interrupt>:
 142:	3c 05 00    	nop       
Disassembly of section .aivt._AltINT0Interrupt:

00000114 <.aivt._AltINT0Interrupt>:
 114:	3c 05 00    	nop       
Disassembly of section .aivt._AltINT1Interrupt:

0000013c <.aivt._AltINT1Interrupt>:
 13c:	3c 05 00    	nop       
Disassembly of section .aivt._AltINT2Interrupt:

0000014e <.aivt._AltINT2Interrupt>:
 14e:	3c 05 00    	nop       
Disassembly of section .aivt._AltInterrupt15:

00000132 <.aivt._AltInterrupt15>:
 132:	3c 05 00    	nop       
Disassembly of section .aivt._AltInterrupt21:

0000013e <.aivt._AltInterrupt21>:
 13e:	3c 05 00    	nop       
Disassembly of section .aivt._AltInterrupt37:

0000015e <.aivt._AltInterrupt37>:
 15e:	3c 05 00    	nop       
Disassembly of section .aivt._AltInterrupt38:

00000160 <.aivt._AltInterrupt38>:
 160:	3c 05 00    	nop       
Disassembly of section .aivt._AltInterrupt39:

00000162 <.aivt._AltInterrupt39>:
 162:	3c 05 00    	nop       
Disassembly of section .aivt._AltInterrupt40:

00000164 <.aivt._AltInterrupt40>:
 164:	3c 05 00    	nop       
Disassembly of section .aivt._AltInterrupt41:

00000166 <.aivt._AltInterrupt41>:
 166:	3c 05 00    	nop       
Disassembly of section .aivt._AltInterrupt42:

00000168 <.aivt._AltInterrupt42>:
 168:	3c 05 00    	nop       
Disassembly of section .aivt._AltInterrupt43:

0000016a <.aivt._AltInterrupt43>:
 16a:	3c 05 00    	nop       
Disassembly of section .aivt._AltInterrupt44:

0000016c <.aivt._AltInterrupt44>:
 16c:	3c 05 00    	nop       
Disassembly of section .aivt._AltInterrupt47:

00000172 <.aivt._AltInterrupt47>:
 172:	3c 05 00    	nop       
Disassembly of section .aivt._AltInterrupt48:

00000174 <.aivt._AltInterrupt48>:
 174:	3c 05 00    	nop       
Disassembly of section .aivt._AltInterrupt49:

00000176 <.aivt._AltInterrupt49>:
 176:	3c 05 00    	nop       
Disassembly of section .aivt._AltInterrupt50:

00000178 <.aivt._AltInterrupt50>:
 178:	3c 05 00    	nop       
Disassembly of section .aivt._AltInterrupt51:

0000017a <.aivt._AltInterrupt51>:
 17a:	3c 05 00    	nop       
Disassembly of section .aivt._AltInterrupt52:

0000017c <.aivt._AltInterrupt52>:
 17c:	3c 05 00    	nop       
Disassembly of section .aivt._AltInterrupt53:

0000017e <.aivt._AltInterrupt53>:
 17e:	3c 05 00    	nop       
Disassembly of section .aivt._AltInterrupt54:

00000180 <.aivt._AltInterrupt54>:
 180:	3c 05 00    	nop       
Disassembly of section .aivt._AltInterrupt55:

00000182 <.aivt._AltInterrupt55>:
 182:	3c 05 00    	nop       
Disassembly of section .aivt._AltInterrupt56:

00000184 <.aivt._AltInterrupt56>:
 184:	3c 05 00    	nop       
Disassembly of section .aivt._AltInterrupt59:

0000018a <.aivt._AltInterrupt59>:
 18a:	3c 05 00    	nop       
Disassembly of section .aivt._AltInterrupt60:

0000018c <.aivt._AltInterrupt60>:
 18c:	3c 05 00    	nop       
Disassembly of section .aivt._AltInterrupt64:

00000194 <.aivt._AltInterrupt64>:
 194:	3c 05 00    	nop       
Disassembly of section .aivt._AltInterrupt71:

000001a2 <.aivt._AltInterrupt71>:
 1a2:	3c 05 00    	nop       
Disassembly of section .aivt._AltInterrupt72:

000001a4 <.aivt._AltInterrupt72>:
 1a4:	3c 05 00    	nop       
Disassembly of section .aivt._AltInterrupt76:

000001ac <.aivt._AltInterrupt76>:
 1ac:	3c 05 00    	nop       
Disassembly of section .aivt._AltInterrupt77:

000001ae <.aivt._AltInterrupt77>:
 1ae:	3c 05 00    	nop       
Disassembly of section .aivt._AltMI2C1Interrupt:

00000136 <.aivt._AltMI2C1Interrupt>:
 136:	3c 05 00    	nop       
Disassembly of section .aivt._AltMPWM1Interrupt:

00000186 <.aivt._AltMPWM1Interrupt>:
 186:	3c 05 00    	nop       
Disassembly of section .aivt._AltMPWM2Interrupt:

000001a6 <.aivt._AltMPWM2Interrupt>:
 1a6:	3c 05 00    	nop       
Disassembly of section .aivt._AltMathError:

0000010c <.aivt._AltMathError>:
 10c:	3c 05 00    	nop       
Disassembly of section .aivt._AltOC1Interrupt:

00000118 <.aivt._AltOC1Interrupt>:
 118:	3c 05 00    	nop       
Disassembly of section .aivt._AltOC2Interrupt:

00000120 <.aivt._AltOC2Interrupt>:
 120:	3c 05 00    	nop       
Disassembly of section .aivt._AltOC3Interrupt:

00000146 <.aivt._AltOC3Interrupt>:
 146:	3c 05 00    	nop       
Disassembly of section .aivt._AltOC4Interrupt:

00000148 <.aivt._AltOC4Interrupt>:
 148:	3c 05 00    	nop       
Disassembly of section .aivt._AltOscillatorFail:

00000106 <.aivt._AltOscillatorFail>:
 106:	3c 05 00    	nop       
Disassembly of section .aivt._AltPMPInterrupt:

0000016e <.aivt._AltPMPInterrupt>:
 16e:	3c 05 00    	nop       
Disassembly of section .aivt._AltQEI1Interrupt:

00000188 <.aivt._AltQEI1Interrupt>:
 188:	3c 05 00    	nop       
Disassembly of section .aivt._AltQEI2Interrupt:

000001aa <.aivt._AltQEI2Interrupt>:
 1aa:	3c 05 00    	nop       
Disassembly of section .aivt._AltRTCCInterrupt:

00000190 <.aivt._AltRTCCInterrupt>:
 190:	3c 05 00    	nop       
Disassembly of section .aivt._AltReservedTrap0:

00000104 <.aivt._AltReservedTrap0>:
 104:	3c 05 00    	nop       
Disassembly of section .aivt._AltReservedTrap6:

00000110 <.aivt._AltReservedTrap6>:
 110:	3c 05 00    	nop       
Disassembly of section .aivt._AltReservedTrap7:

00000112 <.aivt._AltReservedTrap7>:
 112:	3c 05 00    	nop       
Disassembly of section .aivt._AltSI2C1Interrupt:

00000134 <.aivt._AltSI2C1Interrupt>:
 134:	3c 05 00    	nop       
Disassembly of section .aivt._AltSPI1ErrInterrupt:

00000126 <.aivt._AltSPI1ErrInterrupt>:
 126:	3c 05 00    	nop       
Disassembly of section .aivt._AltSPI1Interrupt:

00000128 <.aivt._AltSPI1Interrupt>:
 128:	3c 05 00    	nop       
Disassembly of section .aivt._AltSPI2ErrInterrupt:

00000154 <.aivt._AltSPI2ErrInterrupt>:
 154:	3c 05 00    	nop       
Disassembly of section .aivt._AltSPI2Interrupt:

00000156 <.aivt._AltSPI2Interrupt>:
 156:	3c 05 00    	nop       
Disassembly of section .aivt._AltStackError:

0000010a <.aivt._AltStackError>:
 10a:	3c 05 00    	nop       
Disassembly of section .aivt._AltT1Interrupt:

0000011a <.aivt._AltT1Interrupt>:
 11a:	3c 05 00    	nop       
Disassembly of section .aivt._AltT2Interrupt:

00000122 <.aivt._AltT2Interrupt>:
 122:	3c 05 00    	nop       
Disassembly of section .aivt._AltT3Interrupt:

00000124 <.aivt._AltT3Interrupt>:
 124:	3c 05 00    	nop       
Disassembly of section .aivt._AltT4Interrupt:

0000014a <.aivt._AltT4Interrupt>:
 14a:	3c 05 00    	nop       
Disassembly of section .aivt._AltT5Interrupt:

0000014c <.aivt._AltT5Interrupt>:
 14c:	3c 05 00    	nop       
Disassembly of section .aivt._AltU1ErrInterrupt:

00000196 <.aivt._AltU1ErrInterrupt>:
 196:	3c 05 00    	nop       
Disassembly of section .aivt._AltU1RXInterrupt:

0000012a <.aivt._AltU1RXInterrupt>:
 12a:	3c 05 00    	nop       
Disassembly of section .aivt._AltU1TXInterrupt:

0000012c <.aivt._AltU1TXInterrupt>:
 12c:	3c 05 00    	nop       
Disassembly of section .aivt._AltU2ErrInterrupt:

00000198 <.aivt._AltU2ErrInterrupt>:
 198:	3c 05 00    	nop       
Disassembly of section .aivt._AltU2RXInterrupt:

00000150 <.aivt._AltU2RXInterrupt>:
 150:	3c 05 00    	nop       
Disassembly of section .aivt._AltU2TXInterrupt:

00000152 <.aivt._AltU2TXInterrupt>:
 152:	3c 05 00    	nop       
Disassembly of section .ivt._C1Interrupt:

0000005a <.ivt._C1Interrupt>:
  5a:	3c 05 00    	nop       
Disassembly of section .ivt._C1RxRdyInterrupt:

00000058 <.ivt._C1RxRdyInterrupt>:
  58:	3c 05 00    	nop       
Disassembly of section .ivt._C1TxReqInterrupt:

000000a0 <.ivt._C1TxReqInterrupt>:
  a0:	3c 05 00    	nop       
Disassembly of section .ivt._CMPInterrupt:

00000038 <.ivt._CMPInterrupt>:
  38:	3c 05 00    	nop       
Disassembly of section .ivt._CNInterrupt:

0000003a <.ivt._CNInterrupt>:
  3a:	3c 05 00    	nop       
Disassembly of section .ivt._CRCInterrupt:

0000009a <.ivt._CRCInterrupt>:
  9a:	3c 05 00    	nop       
Disassembly of section .ivt._DAC1LInterrupt:

000000b2 <.ivt._DAC1LInterrupt>:
  b2:	3c 05 00    	nop       
Disassembly of section .ivt._DAC1RInterrupt:

000000b0 <.ivt._DAC1RInterrupt>:
  b0:	3c 05 00    	nop       
Disassembly of section .ivt._DMA0Interrupt:

0000001c <.ivt._DMA0Interrupt>:
  1c:	3c 05 00    	nop       
Disassembly of section .ivt._DMA1Interrupt:

00000030 <.ivt._DMA1Interrupt>:
  30:	3c 05 00    	nop       
Disassembly of section .ivt._DMA2Interrupt:

00000044 <.ivt._DMA2Interrupt>:
  44:	3c 05 00    	nop       
Disassembly of section .ivt._DMA3Interrupt:

0000005c <.ivt._DMA3Interrupt>:
  5c:	3c 05 00    	nop       
Disassembly of section .ivt._DMA4Interrupt:

00000070 <.ivt._DMA4Interrupt>:
  70:	3c 05 00    	nop       
Disassembly of section .ivt._DMA5Interrupt:

0000008e <.ivt._DMA5Interrupt>:
  8e:	3c 05 00    	nop       
Disassembly of section .ivt._DMA6Interrupt:

0000009c <.ivt._DMA6Interrupt>:
  9c:	3c 05 00    	nop       
Disassembly of section .ivt._DMA7Interrupt:

0000009e <.ivt._DMA7Interrupt>:
  9e:	3c 05 00    	nop       
Disassembly of section .ivt._DMACError:

0000000e <.ivt._DMACError>:
   e:	3c 05 00    	nop       
Disassembly of section .ivt._FLTA1Interrupt:

00000092 <.ivt._FLTA1Interrupt>:
  92:	3c 05 00    	nop       
Disassembly of section .ivt._FLTA2Interrupt:

000000a8 <.ivt._FLTA2Interrupt>:
  a8:	3c 05 00    	nop       
Disassembly of section .ivt._IC1Interrupt:

00000016 <.ivt._IC1Interrupt>:
  16:	3c 05 00    	nop       
Disassembly of section .ivt._IC2Interrupt:

0000001e <.ivt._IC2Interrupt>:
  1e:	3c 05 00    	nop       
Disassembly of section .ivt._IC7Interrupt:

00000040 <.ivt._IC7Interrupt>:
  40:	3c 05 00    	nop       
Disassembly of section .ivt._IC8Interrupt:

00000042 <.ivt._IC8Interrupt>:
  42:	3c 05 00    	nop       
Disassembly of section .ivt._INT1Interrupt:

0000003c <.ivt._INT1Interrupt>:
  3c:	3c 05 00    	nop       
Disassembly of section .ivt._INT2Interrupt:

0000004e <.ivt._INT2Interrupt>:
  4e:	3c 05 00    	nop       
Disassembly of section .ivt._Interrupt15:

00000032 <.ivt._Interrupt15>:
  32:	3c 05 00    	nop       
Disassembly of section .ivt._Interrupt21:

0000003e <.ivt._Interrupt21>:
  3e:	3c 05 00    	nop       
Disassembly of section .ivt._Interrupt37:

0000005e <.ivt._Interrupt37>:
  5e:	3c 05 00    	nop       
Disassembly of section .ivt._Interrupt38:

00000060 <.ivt._Interrupt38>:
  60:	3c 05 00    	nop       
Disassembly of section .ivt._Interrupt39:

00000062 <.ivt._Interrupt39>:
  62:	3c 05 00    	nop       
Disassembly of section .ivt._Interrupt40:

00000064 <.ivt._Interrupt40>:
  64:	3c 05 00    	nop       
Disassembly of section .ivt._Interrupt41:

00000066 <.ivt._Interrupt41>:
  66:	3c 05 00    	nop       
Disassembly of section .ivt._Interrupt42:

00000068 <.ivt._Interrupt42>:
  68:	3c 05 00    	nop       
Disassembly of section .ivt._Interrupt43:

0000006a <.ivt._Interrupt43>:
  6a:	3c 05 00    	nop       
Disassembly of section .ivt._Interrupt44:

0000006c <.ivt._Interrupt44>:
  6c:	3c 05 00    	nop       
Disassembly of section .ivt._Interrupt47:

00000072 <.ivt._Interrupt47>:
  72:	3c 05 00    	nop       
Disassembly of section .ivt._Interrupt48:

00000074 <.ivt._Interrupt48>:
  74:	3c 05 00    	nop       
Disassembly of section .ivt._Interrupt49:

00000076 <.ivt._Interrupt49>:
  76:	3c 05 00    	nop       
Disassembly of section .ivt._Interrupt50:

00000078 <.ivt._Interrupt50>:
  78:	3c 05 00    	nop       
Disassembly of section .ivt._Interrupt51:

0000007a <.ivt._Interrupt51>:
  7a:	3c 05 00    	nop       
Disassembly of section .ivt._Interrupt52:

0000007c <.ivt._Interrupt52>:
  7c:	3c 05 00    	nop       
Disassembly of section .ivt._Interrupt53:

0000007e <.ivt._Interrupt53>:
  7e:	3c 05 00    	nop       
Disassembly of section .ivt._Interrupt54:

00000080 <.ivt._Interrupt54>:
  80:	3c 05 00    	nop       
Disassembly of section .ivt._Interrupt55:

00000082 <.ivt._Interrupt55>:
  82:	3c 05 00    	nop       
Disassembly of section .ivt._Interrupt56:

00000084 <.ivt._Interrupt56>:
  84:	3c 05 00    	nop       
Disassembly of section .ivt._Interrupt59:

0000008a <.ivt._Interrupt59>:
  8a:	3c 05 00    	nop       
Disassembly of section .ivt._Interrupt60:

0000008c <.ivt._Interrupt60>:
  8c:	3c 05 00    	nop       
Disassembly of section .ivt._Interrupt64:

00000094 <.ivt._Interrupt64>:
  94:	3c 05 00    	nop       
Disassembly of section .ivt._Interrupt71:

000000a2 <.ivt._Interrupt71>:
  a2:	3c 05 00    	nop       
Disassembly of section .ivt._Interrupt72:

000000a4 <.ivt._Interrupt72>:
  a4:	3c 05 00    	nop       
Disassembly of section .ivt._Interrupt76:

000000ac <.ivt._Interrupt76>:
  ac:	3c 05 00    	nop       
Disassembly of section .ivt._Interrupt77:

000000ae <.ivt._Interrupt77>:
  ae:	3c 05 00    	nop       
Disassembly of section .ivt._MI2C1Interrupt:

00000036 <.ivt._MI2C1Interrupt>:
  36:	3c 05 00    	nop       
Disassembly of section .ivt._MPWM1Interrupt:

00000086 <.ivt._MPWM1Interrupt>:
  86:	3c 05 00    	nop       
Disassembly of section .ivt._MPWM2Interrupt:

000000a6 <.ivt._MPWM2Interrupt>:
  a6:	3c 05 00    	nop       
Disassembly of section .ivt._MathError:

0000000c <.ivt._MathError>:
   c:	3c 05 00    	nop       
Disassembly of section .ivt._OC1Interrupt:

00000018 <.ivt._OC1Interrupt>:
  18:	3c 05 00    	nop       
Disassembly of section .ivt._OC2Interrupt:

00000020 <.ivt._OC2Interrupt>:
  20:	3c 05 00    	nop       
Disassembly of section .ivt._OC3Interrupt:

00000046 <.ivt._OC3Interrupt>:
  46:	3c 05 00    	nop       
Disassembly of section .ivt._OC4Interrupt:

00000048 <.ivt._OC4Interrupt>:
  48:	3c 05 00    	nop       
Disassembly of section .ivt._OscillatorFail:

00000006 <.ivt._OscillatorFail>:
   6:	3c 05 00    	nop       
Disassembly of section .ivt._PMPInterrupt:

0000006e <.ivt._PMPInterrupt>:
  6e:	3c 05 00    	nop       
Disassembly of section .ivt._QEI1Interrupt:

00000088 <.ivt._QEI1Interrupt>:
  88:	3c 05 00    	nop       
Disassembly of section .ivt._QEI2Interrupt:

000000aa <.ivt._QEI2Interrupt>:
  aa:	3c 05 00    	nop       
Disassembly of section .ivt._RTCCInterrupt:

00000090 <.ivt._RTCCInterrupt>:
  90:	3c 05 00    	nop       
Disassembly of section .ivt._ReservedTrap0:

00000004 <.ivt._ReservedTrap0>:
   4:	3c 05 00    	nop       
Disassembly of section .ivt._ReservedTrap6:

00000010 <.ivt._ReservedTrap6>:
  10:	3c 05 00    	nop       
Disassembly of section .ivt._ReservedTrap7:

00000012 <.ivt._ReservedTrap7>:
  12:	3c 05 00    	nop       
Disassembly of section .ivt._SI2C1Interrupt:

00000034 <.ivt._SI2C1Interrupt>:
  34:	3c 05 00    	nop       
Disassembly of section .ivt._SPI1ErrInterrupt:

00000026 <.ivt._SPI1ErrInterrupt>:
  26:	3c 05 00    	nop       
Disassembly of section .ivt._SPI1Interrupt:

00000028 <.ivt._SPI1Interrupt>:
  28:	3c 05 00    	nop       
Disassembly of section .ivt._SPI2ErrInterrupt:

00000054 <.ivt._SPI2ErrInterrupt>:
  54:	3c 05 00    	nop       
Disassembly of section .ivt._SPI2Interrupt:

00000056 <.ivt._SPI2Interrupt>:
  56:	3c 05 00    	nop       
Disassembly of section .ivt._StackError:

0000000a <.ivt._StackError>:
   a:	3c 05 00    	nop       
Disassembly of section .ivt._T2Interrupt:

00000022 <.ivt._T2Interrupt>:
  22:	3c 05 00    	nop       
Disassembly of section .ivt._T3Interrupt:

00000024 <.ivt._T3Interrupt>:
  24:	3c 05 00    	nop       
Disassembly of section .ivt._T4Interrupt:

0000004a <.ivt._T4Interrupt>:
  4a:	3c 05 00    	nop       
Disassembly of section .ivt._T5Interrupt:

0000004c <.ivt._T5Interrupt>:
  4c:	3c 05 00    	nop       
Disassembly of section .ivt._U1ErrInterrupt:

00000096 <.ivt._U1ErrInterrupt>:
  96:	3c 05 00    	nop       
Disassembly of section .ivt._U2ErrInterrupt:

00000098 <.ivt._U2ErrInterrupt>:
  98:	3c 05 00    	nop       
Disassembly of section .ivt._U2RXInterrupt:

00000050 <.ivt._U2RXInterrupt>:
  50:	3c 05 00    	nop       
Disassembly of section .ivt._U2TXInterrupt:

00000052 <.ivt._U2TXInterrupt>:
  52:	3c 05 00    	nop       
Disassembly of section .reset:

00000000 <.reset>:
   0:	00 02 04    	goto      0x200 <__reset>
   2:	00 00 00 
Disassembly of section .text:

00000200 <__reset>:
 200:	ef f5 20    	mov.w     #0xf5e, w15
 202:	0e 7f 24    	mov.w     #0x47f0, w14
 204:	0e 01 88    	mov.w     w14, 0x20
 206:	00 00 00    	nop       
 208:	00 00 20    	mov.w     #0x0, w0
 20a:	00 00 e0    	cp0.w     w0
 20c:	02 00 32    	bra       Z, 0x212 <CORCON_RESET>
 20e:	00 01 20    	mov.w     #0x10, w0
 210:	20 02 88    	mov.w     w0, 0x44

00000212 <CORCON_RESET>:
 212:	0e 00 07    	rcall     0x230 <__psv_init>
 214:	e0 46 21    	mov.w     #0x146e, w0
 216:	01 00 20    	mov.w     #0x0, w1
 218:	81 0f 70    	ior.w     w0, w1, [w15]
 21a:	01 00 32    	bra       Z, 0x21e <L11>
 21c:	14 00 07    	rcall     0x246 <__data_init> <__data_init_standard>

0000021e <L11>:
 21e:	00 00 20    	mov.w     #0x0, w0
 220:	00 00 e0    	cp0.w     w0
 222:	02 00 32    	bra       Z, 0x228 <L12>
 224:	00 00 02    	call      0x0 <__reset-0x200>
 226:	00 00 00 

00000228 <L12>:
 228:	08 19 02    	call      0x1908 <_main>
 22a:	00 00 00 
 22c:	00 40 da    	break     
 22e:	00 00 fe    	reset     

00000230 <__psv_init>:
 230:	44 40 a9    	bclr.b    0x44, #0x2
 232:	60 00 20    	mov.w     #0x6, w0
 234:	00 00 e0    	cp0.w     w0
 236:	03 00 32    	bra       Z, 0x23e <L13>
 238:	00 00 20    	mov.w     #0x0, w0
 23a:	a0 01 88    	mov.w     w0, 0x34
 23c:	44 40 a8    	bset.b    0x44, #0x2

0000023e <L13>:
 23e:	00 00 06    	return    

00000240 <__long_indirect_call>:
 240:	8a 1f 78    	mov.w     w10, [w15++]
 242:	8b 1f 78    	mov.w     w11, [w15++]
 244:	00 00 06    	return    

00000246 <__data_init>:
 246:	91 01 88    	mov.w     w1, 0x32
 248:	80 04 78    	mov.w     w0, w9
 24a:	00 00 eb    	clr.w     w0
 24c:	1a 00 37    	bra       0x282 <L41>

0000024e <L11>:
 24e:	e2 84 44    	add.w     w9, #0x2, w9
 250:	32 a0 b4    	addc.w    0x32
 252:	99 05 ba    	tblrdl.w  [w9], w11
 254:	e2 84 44    	add.w     w9, #0x2, w9
 256:	32 a0 b4    	addc.w    0x32
 258:	99 06 ba    	tblrdl.w  [w9], w13
 25a:	e2 84 44    	add.w     w9, #0x2, w9
 25c:	32 a0 b4    	addc.w    0x32
 25e:	00 06 eb    	clr.w     w12
 260:	47 6f de    	lsr.w     w13, #0x7, w14
 262:	fd 07 b2    	and.w     #0x7f, w13
 264:	63 6c e1    	cp.b      w13, #0x3
 266:	03 00 3a    	bra       NZ, 0x26e <L21>
 268:	eb ff 07    	rcall     0x240 <__long_indirect_call> <.init>
 26a:	00 00 eb    	clr.w     w0
 26c:	0a 00 37    	bra       0x282 <L41>

0000026e <L21>:
 26e:	60 6c e1    	cp.b      w13, #0x0
 270:	04 00 3a    	bra       NZ, 0x27a <L22>

00000272 <L91>:
 272:	00 5d eb    	clr.b     [w10++]
 274:	8b 05 e9    	dec.w     w11, w11
 276:	fd ff 3e    	bra       GTU, 0x272 <L91>
 278:	04 00 37    	bra       0x282 <L41>

0000027a <L22>:
 27a:	61 68 e1    	cp.w      w13, #0x1
 27c:	01 00 32    	bra       Z, 0x280 <L31>
 27e:	00 86 eb    	setm.w    w12

00000280 <L31>:
 280:	0b 00 07    	rcall     0x298 <L13> <__memcpypd3_std>

00000282 <L41>:
 282:	19 c7 ba    	tblrdh.b  [w9], w14
 284:	19 05 ba    	tblrdl.w  [w9], w10
 286:	0e 04 e0    	cp0.b     w14
 288:	03 00 3a    	bra       NZ, 0x290 <L12>
 28a:	0a 00 e0    	cp0.w     w10
 28c:	e0 ff 3a    	bra       NZ, 0x24e <L11>
 28e:	00 00 06    	return    

00000290 <L12>:
 290:	fe 07 b2    	and.w     #0x7f, w14
 292:	9e 01 88    	mov.w     w14, 0x32
 294:	8a 04 78    	mov.w     w10, w9
 296:	f5 ff 37    	bra       0x282 <L41>

00000298 <L13>:
 298:	39 5d ba    	tblrdl.b  [w9++], [w10++]
 29a:	8b 05 e9    	dec.w     w11, w11
 29c:	0c 00 32    	bra       Z, 0x2b6 <L23>
 29e:	29 5d ba    	tblrdl.b  [w9--], [w10++]
 2a0:	8b 05 e9    	dec.w     w11, w11
 2a2:	08 00 32    	bra       Z, 0x2b4 <L42>
 2a4:	0c 00 e0    	cp0.w     w12
 2a6:	03 00 3a    	bra       NZ, 0x2ae <L14>

000002a8 <L32>:
 2a8:	e2 84 44    	add.w     w9, #0x2, w9
 2aa:	32 a0 b4    	addc.w    0x32
 2ac:	f5 ff 37    	bra       0x298 <L13> <__memcpypd3_std>

000002ae <L14>:
 2ae:	19 dd ba    	tblrdh.b  [w9], [w10++]
 2b0:	8b 05 e9    	dec.w     w11, w11
 2b2:	fa ff 3a    	bra       NZ, 0x2a8 <L32>

000002b4 <L42>:
 2b4:	89 04 e8    	inc.w     w9, w9

000002b6 <L23>:
 2b6:	e1 84 44    	add.w     w9, #0x1, w9
 2b8:	32 a0 b4    	addc.w    0x32
 2ba:	00 00 06    	return    

000002bc <.handle>:
	...

000002e8 <__U1RXInterrupt>:

//________________________________________________________________________________
//Обработчик приема байта
void __attribute__((interrupt, no_auto_psv)) _U1RXInterrupt(void)
{
 2e8:	36 00 f8    	push      0x36
 2ea:	80 9f be    	mov.d     w0, [w15++]
 2ec:	82 9f be    	mov.d     w2, [w15++]
 2ee:	84 9f be    	mov.d     w4, [w15++]
 2f0:	86 9f be    	mov.d     w6, [w15++]
	BYTE DataByte, NewIndex;
	NewIndex = (RcFifo.NIn+1)&0b01111111;
 2f2:	c1 d6 20    	mov.w     #0xd6c, w1
 2f4:	11 41 78    	mov.b     [w1], w2
 2f6:	02 40 e8    	inc.b     w2, w0
 2f8:	00 74 a1    	bclr.b    w0, #0x7
	if(NewIndex == RcFifo.NOut) //Буфер заполнен, писать в него нельзя
 2fa:	81 01 e8    	inc.w     w1, w3
 2fc:	93 4f 10    	subr.b    w0, [w3], [w15]
 2fe:	17 00 32    	bra       Z, 0x32e <.L5>
	{
		ReportFifoRxOverflow();
		return;
	}
	DataByte = U1RXREG;
 300:	33 11 80    	mov.w     0x226, w3
	RcFifo.Buffer[RcFifo.NIn]=DataByte;
 302:	02 81 fb    	ze        w2, w2
 304:	c4 ce 20    	mov.w     #0xcec, w4
 306:	03 72 79    	mov.b     w3, [w4+w2]
	RcFifo.NIn = NewIndex;
 308:	80 48 78    	mov.b     w0, [w1]
	if(DataByte == UART_STOP)
 30a:	b0 ca b3    	mov.b     #0xab, w0
 30c:	83 4f 50    	sub.b     w0, w3, [w15]
 30e:	06 00 32    	bra       Z, 0x31c <.L6> <.L7>
		tn_sem_isignal(&UartRcMsgSem);	
}
 310:	4f 03 be    	mov.d     [--w15], w6
 312:	4f 02 be    	mov.d     [--w15], w4
 314:	4f 01 be    	mov.d     [--w15], w2
 316:	4f 00 be    	mov.d     [--w15], w0
 318:	36 00 f9    	pop       0x36
 31a:	00 40 06    	retfie    

0000031c <.L6>:
 31c:	20 92 20    	mov.w     #0x922, w0
 31e:	e9 14 07    	rcall     0x2cf2 <.eb> <.ef> <_tn_sem_isignal> <.bb> <.bf> <.text.tn_sem_isignal>
 320:	4f 03 be    	mov.d     [--w15], w6
 322:	4f 02 be    	mov.d     [--w15], w4
 324:	4f 01 be    	mov.d     [--w15], w2
 326:	4f 00 be    	mov.d     [--w15], w0
 328:	36 00 f9    	pop       0x36
 32a:	00 40 06    	retfie    
 32c:	f7 ff 37    	bra       0x31c <.L6> <.L7>

0000032e <.L5>:
 32e:	0a 07 07    	rcall     0x1144 <_ReportFifoRxOverflow> <.bb> <.bf> <.eb> <.ef>
 330:	4f 03 be    	mov.d     [--w15], w6
 332:	4f 02 be    	mov.d     [--w15], w4
 334:	4f 01 be    	mov.d     [--w15], w2
 336:	4f 00 be    	mov.d     [--w15], w0
 338:	36 00 f9    	pop       0x36
 33a:	00 40 06    	retfie    
 33c:	ef ff 37    	bra       0x31c <.L6> <.L7>

0000033e <__U1TXInterrupt>:

//________________________________________________________________________________
//Обработчик окончания передачи байта (TXREG->Transmit Shift Reg.)
void __attribute__((interrupt, no_auto_psv)) _U1TXInterrupt(void)
{
 33e:	80 9f be    	mov.d     w0, [w15++]
 340:	82 9f be    	mov.d     w2, [w15++]
	if(TxFifo.NOut == TxFifo.NIn) //Буфер пуст
 342:	b1 e1 20    	mov.w     #0xe1b, w1
 344:	11 40 78    	mov.b     [w1], w0
 346:	01 01 e9    	dec.w     w1, w2
 348:	92 4f 50    	sub.b     w0, [w2], [w15]
 34a:	0b 00 32    	bra       Z, 0x362 <.L13> <.L14>
	{	
		IEC0bits.U1TXIE = 0;
		return;
	}
	U1TXREG = TxFifo.Buffer[TxFifo.NOut];
 34c:	00 81 fb    	ze        w0, w2
 34e:	a3 d9 20    	mov.w     #0xd9a, w3
 350:	63 41 79    	mov.b     [w3+w2], w2
 352:	02 81 fb    	ze        w2, w2
 354:	22 11 88    	mov.w     w2, 0x224
	TxFifo.NOut = (TxFifo.NOut+1)&0b01111111;
 356:	00 40 e8    	inc.b     w0, w0
 358:	00 74 a1    	bclr.b    w0, #0x7
 35a:	80 48 78    	mov.b     w0, [w1]
}
 35c:	4f 01 be    	mov.d     [--w15], w2
 35e:	4f 00 be    	mov.d     [--w15], w0
 360:	00 40 06    	retfie    

00000362 <.L13>:
 362:	95 80 a9    	bclr.b    0x95, #0x4
 364:	4f 01 be    	mov.d     [--w15], w2
 366:	4f 00 be    	mov.d     [--w15], w0
 368:	00 40 06    	retfie    
 36a:	fb ff 37    	bra       0x362 <.L13> <.L14>

0000036c <_UartStartTx>:

//________________________________________________________________________________
//Запуск передачи сообщения
//Копирует данные из TxBuf.Data в TxFifo.Buffer, одновременно формируя 
//пакет канального уровня
void UartStartTx(void)
{
 36c:	88 9f be    	mov.d     w8, [w15++]
 36e:	8a 9f be    	mov.d     w10, [w15++]
 370:	8c 9f be    	mov.d     w12, [w15++]
 372:	8e 1f 78    	mov.w     w14, [w15++]
	BYTE i=0;
	BYTE DataByte, NewIndex;
	static bool WasTxShift=0;
	NewIndex = (TxFifo.NIn+1)&0b01111111;
 374:	ad e1 20    	mov.w     #0xe1a, w13
 376:	1d 40 78    	mov.b     [w13], w0
 378:	80 41 e8    	inc.b     w0, w3
 37a:	03 74 a1    	bclr.b    w3, #0x7
	if(NewIndex == TxFifo.NOut) //Буфер заполнен, писать в него нельзя
 37c:	0d 07 e8    	inc.w     w13, w14
 37e:	1e 42 78    	mov.b     [w14], w4
 380:	83 4f 52    	sub.b     w4, w3, [w15]
 382:	28 00 32    	bra       Z, 0x3d4 <.L16>
		return;
	TxFifo.Buffer[TxFifo.NIn] = UART_START;
 384:	00 80 fb    	ze        w0, w0
 386:	06 f8 2f    	mov.w     #0xff80, w6
 388:	0d 03 43    	add.w     w6, w13, w6
 38a:	ab ca b3    	mov.b     #0xaa, w11
 38c:	0b 73 78    	mov.b     w11, [w6+w0]
	TxFifo.NIn = NewIndex;

	do
	{
		NewIndex = (TxFifo.NIn+1)&0b01111111;
		if(NewIndex == TxFifo.NOut) //Буфер заполнен, писать в него нельзя
			return;
		DataByte = TxBuf.Data[i];
		if(WasTxShift)
		{
			TxFifo.Buffer[TxFifo.NIn] = DataByte-UART_START;
			++i;
			WasTxShift=0;
		}
		else if((DataByte==UART_START) || (DataByte==UART_SHIFT) || (DataByte==UART_STOP))
		{
			TxFifo.Buffer[TxFifo.NIn] = UART_SHIFT;
			WasTxShift=1;
		}
		else //Нормальная передача без преобразований
		{
			TxFifo.Buffer[TxFifo.NIn] = DataByte;
			++i;
		}
		TxFifo.NIn = NewIndex;
	}while (i!=TxBuf.Length);
 38e:	80 d9 20    	mov.w     #0xd98, w0
 390:	10 44 78    	mov.b     [w0], w8
 392:	b5 89 20    	mov.w     #0x89b, w5
 394:	95 42 78    	mov.b     [w5], w5
 396:	03 41 78    	mov.b     w3, w2
 398:	80 40 eb    	clr.b     w1
 39a:	f4 03 50    	sub.w     w0, #0x14, w7
 39c:	ca ca b3    	mov.b     #0xac, w10
 39e:	bc ca b3    	mov.b     #0xab, w12
 3a0:	84 44 78    	mov.b     w4, w9
 3a2:	02 40 e8    	inc.b     w2, w0
 3a4:	00 74 a1    	bclr.b    w0, #0x7
 3a6:	84 4f 50    	sub.b     w0, w4, [w15]
 3a8:	12 00 32    	bra       Z, 0x3ce <.L27>

000003aa <.L18>:
 3aa:	81 81 fb    	ze        w1, w3
 3ac:	e7 c1 79    	mov.b     [w7+w3], w3
 3ae:	05 04 e0    	cp0.b     w5
 3b0:	16 00 32    	bra       Z, 0x3de <.L19> <.L29>
 3b2:	02 81 fb    	ze        w2, w2
 3b4:	63 45 b0    	add.b     #0x56, w3
 3b6:	03 73 79    	mov.b     w3, [w6+w2]
 3b8:	81 40 e8    	inc.b     w1, w1
 3ba:	80 42 eb    	clr.b     w5

000003bc <.L20>:
 3bc:	81 4f 54    	sub.b     w8, w1, [w15]
 3be:	1a 00 32    	bra       Z, 0x3f4 <.L28>

000003c0 <.L25>:
 3c0:	80 41 78    	mov.b     w0, w3
 3c2:	09 42 78    	mov.b     w9, w4
 3c4:	03 41 78    	mov.b     w3, w2
 3c6:	02 40 e8    	inc.b     w2, w0
 3c8:	00 74 a1    	bclr.b    w0, #0x7
 3ca:	84 4f 50    	sub.b     w0, w4, [w15]
 3cc:	ee ff 3a    	bra       NZ, 0x3aa <.L18>

000003ce <.L27>:
 3ce:	b0 89 20    	mov.w     #0x89b, w0
 3d0:	05 48 78    	mov.b     w5, [w0]
 3d2:	83 4e 78    	mov.b     w3, [w13]

000003d4 <.L16>:
	NewIndex = (TxFifo.NIn+1)&0b01111111;
	if(NewIndex == TxFifo.NOut) //Буфер заполнен, писать в него нельзя
		return;
	TxFifo.Buffer[TxFifo.NIn] = UART_STOP;
	TxFifo.NIn = NewIndex;

	if(IEC0bits.U1TXIE) //Не закончена предыдущая передача
		return;
	//Здесь U1TXIE==0, а значит, что прерывание само в буфер отправки ничего
	//не запишет 
	//Передача первого байта первого ожидающего сообщения,
	//если буфер отправки пуст (а последний байт еще может быть
	//в процессе отправки)
	if(IFS0bits.U1TXIF)
	{
		U1TXREG = UART_START;	
		TxFifo.NOut = (TxFifo.NOut+1)&0b01111111;
	}
	IEC0bits.U1TXIE=1;
}
 3d4:	4f 07 78    	mov.w     [--w15], w14
 3d6:	4f 06 be    	mov.d     [--w15], w12
 3d8:	4f 05 be    	mov.d     [--w15], w10
 3da:	4f 04 be    	mov.d     [--w15], w8
 3dc:	00 00 06    	return    

000003de <.L19>:
 3de:	8b cf 51    	sub.b     w3, w11, [w15]
 3e0:	26 00 32    	bra       Z, 0x42e <.L21>
 3e2:	8a cf 51    	sub.b     w3, w10, [w15]
 3e4:	24 00 32    	bra       Z, 0x42e <.L21>
 3e6:	8c cf 51    	sub.b     w3, w12, [w15]
 3e8:	22 00 32    	bra       Z, 0x42e <.L21>
 3ea:	02 81 fb    	ze        w2, w2
 3ec:	03 73 79    	mov.b     w3, [w6+w2]
 3ee:	81 40 e8    	inc.b     w1, w1
 3f0:	81 4f 54    	sub.b     w8, w1, [w15]
 3f2:	e6 ff 3a    	bra       NZ, 0x3c0 <.L25>

000003f4 <.L28>:
 3f4:	b2 89 20    	mov.w     #0x89b, w2
 3f6:	05 49 78    	mov.b     w5, [w2]
 3f8:	80 4e 78    	mov.b     w0, [w13]
 3fa:	80 40 e8    	inc.b     w0, w1
 3fc:	01 74 a1    	bclr.b    w1, #0x7
 3fe:	84 cf 50    	sub.b     w1, w4, [w15]
 400:	e9 ff 32    	bra       Z, 0x3d4 <.L16>
 402:	00 80 fb    	ze        w0, w0
 404:	b2 ca b3    	mov.b     #0xab, w2
 406:	02 73 78    	mov.b     w2, [w6+w0]
 408:	a0 e1 20    	mov.w     #0xe1a, w0
 40a:	01 48 78    	mov.b     w1, [w0]
 40c:	95 80 ab    	btst.b    0x95, #0x4
 40e:	e2 ff 3a    	bra       NZ, 0x3d4 <.L16>
 410:	00 00 21    	mov.w     #0x1000, w0
 412:	84 00 b6    	and.w     0x84, WREG
 414:	05 00 32    	bra       Z, 0x420 <.L24>
 416:	a0 0a 20    	mov.w     #0xaa, w0
 418:	20 11 88    	mov.w     w0, 0x224
 41a:	04 42 e8    	inc.b     w4, w4
 41c:	04 74 a1    	bclr.b    w4, #0x7
 41e:	04 4f 78    	mov.b     w4, [w14]

00000420 <.L24>:
 420:	95 80 a8    	bset.b    0x95, #0x4
 422:	4f 07 78    	mov.w     [--w15], w14
 424:	4f 06 be    	mov.d     [--w15], w12
 426:	4f 05 be    	mov.d     [--w15], w10
 428:	4f 04 be    	mov.d     [--w15], w8
 42a:	00 00 06    	return    
 42c:	d8 ff 37    	bra       0x3de <.L19> <.L29>

0000042e <.L21>:
 42e:	02 81 fb    	ze        w2, w2
 430:	0a 73 79    	mov.b     w10, [w6+w2]
 432:	15 c0 b3    	mov.b     #0x1, w5
 434:	c3 ff 37    	bra       0x3bc <.L20>

00000436 <_ExtractRcMessage>:

//________________________________________________________________________________
//Извлекает из RcFifo сообщения, раскодируя их и проверяя на валидность.
//Результат помещает в RcBuf
BYTE ExtractRcMessage()
{
 436:	88 9f be    	mov.d     w8, [w15++]
 438:	8a 9f be    	mov.d     w10, [w15++]
	BYTE DataByte;
	static bool WasRxShift = 0;
	DataByte=RcFifo.Buffer[RcFifo.NOut];
 43a:	d9 d6 20    	mov.w     #0xd6d, w9
 43c:	19 40 78    	mov.b     [w9], w0
 43e:	80 80 fb    	ze        w0, w1
 440:	f8 f7 2f    	mov.w     #0xff7f, w8
 442:	09 04 44    	add.w     w8, w9, w8
 444:	68 c2 78    	mov.b     [w8+w1], w4
	RcFifo.NOut = (RcFifo.NOut + 1) & 0b01111111;
 446:	00 40 e8    	inc.b     w0, w0
 448:	00 74 a1    	bclr.b    w0, #0x7
 44a:	80 4c 78    	mov.b     w0, [w9]
	if(DataByte!=UART_START)
 44c:	a1 ca b3    	mov.b     #0xaa, w1
 44e:	81 4f 52    	sub.b     w4, w1, [w15]
 450:	26 00 3a    	bra       NZ, 0x49e <.L51>
	{
		ReportRcProtocolError();
		WindRcFifo();
		return 0;
	}
	RcBuf.Length = 0;
 452:	2b d8 20    	mov.w     #0xd82, w11
 454:	a3 89 20    	mov.w     #0x89a, w3
 456:	93 41 78    	mov.b     [w3], w3
 458:	00 41 eb    	clr.b     w2
	while(1)
	{
		DataByte=RcFifo.Buffer[RcFifo.NOut];
		RcFifo.NOut = (RcFifo.NOut + 1) & 0b01111111;

		if(DataByte==UART_SHIFT)
 45a:	c5 ca b3    	mov.b     #0xac, w5
		{
			WasRxShift=1;
		}
		else if(DataByte==UART_START)
		{
			ReportRcProtocolError();
			WindRcFifo();
			return 0;
		}
		else if(DataByte==UART_STOP)
 45c:	b6 ca b3    	mov.b     #0xab, w6
		{
			if(RcBuf.Length == 0)
			{
				ReportRcProtocolError();
				return 0;
			}
			return 1;
			//Выполнение Reset прерывания
			//if(RcFifo.Buffer[RcFifo.NIn].Data[0]==CMD_RESET)
			//{
			//	if((RcFifo.Buffer[RcFifo.NIn].Data[1]==RESET_MAGIC_NUM)&& (RcFifo.Buffer[RcFifo.NIn].Length==2))
			//		asm("RESET");
			//}
		}
		else
		{
			if(RcBuf.Length == BUFFER_LENGTH)
			{
				ReportRcProtocolError(); // Ошибка: переполнение приемного буфера
				return 0;
			}

			if(!WasRxShift)
			{
				RcBuf.Data[RcBuf.Length]=DataByte;
				++RcBuf.Length;
			}
			else
			{
				RcBuf.Data[RcBuf.Length]=DataByte+UART_START;
 45e:	f4 83 55    	sub.w     w11, #0x14, w7

00000460 <.L48>:
 460:	80 80 fb    	ze        w0, w1
 462:	e8 c0 78    	mov.b     [w8+w1], w1
 464:	00 40 e8    	inc.b     w0, w0
 466:	00 74 a1    	bclr.b    w0, #0x7
 468:	85 cf 50    	sub.b     w1, w5, [w15]
 46a:	11 00 32    	bra       Z, 0x48e <.L45>

0000046c <.L55>:
 46c:	84 cf 50    	sub.b     w1, w4, [w15]
 46e:	2d 00 32    	bra       Z, 0x4ca <.L52> <.L58>
 470:	86 cf 50    	sub.b     w1, w6, [w15]
 472:	3f 00 32    	bra       Z, 0x4f2 <.L53> <.eb>
 474:	f4 4f 51    	sub.b     w2, #0x14, [w15]
 476:	4a 00 32    	bra       Z, 0x50c <.L54>
 478:	03 04 e0    	cp0.b     w3
 47a:	0b 00 3a    	bra       NZ, 0x492 <.L43>
 47c:	02 85 fb    	ze        w2, w10
 47e:	81 73 7d    	mov.b     w1, [w7+w10]
 480:	02 41 e8    	inc.b     w2, w2
 482:	80 80 fb    	ze        w0, w1
 484:	e8 c0 78    	mov.b     [w8+w1], w1
 486:	00 40 e8    	inc.b     w0, w0
 488:	00 74 a1    	bclr.b    w0, #0x7
 48a:	85 cf 50    	sub.b     w1, w5, [w15]
 48c:	ef ff 3a    	bra       NZ, 0x46c <.L55>

0000048e <.L45>:
 48e:	13 c0 b3    	mov.b     #0x1, w3
 490:	e7 ff 37    	bra       0x460 <.L48>

00000492 <.L43>:
 492:	82 81 fb    	ze        w2, w3
 494:	84 c0 40    	add.b     w1, w4, w1
 496:	81 f3 79    	mov.b     w1, [w7+w3]
				WasRxShift=0;
				++RcBuf.Length;
 498:	02 41 e8    	inc.b     w2, w2
 49a:	80 41 eb    	clr.b     w3
 49c:	e1 ff 37    	bra       0x460 <.L48>

0000049e <.L51>:
 49e:	60 06 07    	rcall     0x1160 <_ReportRcProtocolError> <.bb> <.bf> <.eb> <.ef>
 4a0:	19 40 78    	mov.b     [w9], w0
 4a2:	89 00 e9    	dec.w     w9, w1
 4a4:	11 41 78    	mov.b     [w1], w2
 4a6:	80 40 78    	mov.b     w0, w1

000004a8 <.bb>:
			}
		}
	}
	return 0;
}

//________________________________________________________________________________
//Проматывает байты из RcFifo до символа конца сообщения. Вызывается только при получении некорректрого сообщения
void WindRcFifo()
{
	BYTE DataByte;
	do
	{
		if(RcFifo.NOut == RcFifo.NIn)
			return;
		DataByte=RcFifo.Buffer[RcFifo.NOut];
		RcFifo.NOut = (RcFifo.NOut + 1) & 0b01111111;
	}while(DataByte != UART_STOP);
 4a8:	b3 ca b3    	mov.b     #0xab, w3
 4aa:	82 4f 50    	sub.b     w0, w2, [w15]
 4ac:	09 00 32    	bra       Z, 0x4c0 <.L33> <.eb> <.eb>

000004ae <.L56>:
 4ae:	00 40 e8    	inc.b     w0, w0
 4b0:	00 74 a1    	bclr.b    w0, #0x7
 4b2:	81 80 fb    	ze        w1, w1
 4b4:	e8 c0 78    	mov.b     [w8+w1], w1
 4b6:	83 cf 50    	sub.b     w1, w3, [w15]
 4b8:	03 00 32    	bra       Z, 0x4c0 <.L33> <.eb> <.eb>
 4ba:	80 40 78    	mov.b     w0, w1
 4bc:	82 4f 50    	sub.b     w0, w2, [w15]
 4be:	f7 ff 3a    	bra       NZ, 0x4ae <.L56>

000004c0 <.L33>:
 4c0:	80 4c 78    	mov.b     w0, [w9]

000004c2 <.bb>:
 4c2:	00 40 eb    	clr.b     w0

000004c4 <.L35>:
 4c4:	4f 05 be    	mov.d     [--w15], w10
 4c6:	4f 04 be    	mov.d     [--w15], w8
 4c8:	00 00 06    	return    

000004ca <.L52>:
 4ca:	80 4c 78    	mov.b     w0, [w9]
 4cc:	a0 89 20    	mov.w     #0x89a, w0
 4ce:	03 48 78    	mov.b     w3, [w0]
 4d0:	82 4d 78    	mov.b     w2, [w11]
 4d2:	46 06 07    	rcall     0x1160 <_ReportRcProtocolError> <.bb> <.bf> <.eb> <.ef>
 4d4:	19 40 78    	mov.b     [w9], w0
 4d6:	c1 d6 20    	mov.w     #0xd6c, w1
 4d8:	11 41 78    	mov.b     [w1], w2
 4da:	80 40 78    	mov.b     w0, w1

000004dc <.bb>:
 4dc:	b3 ca b3    	mov.b     #0xab, w3

000004de <.L40>:
 4de:	82 4f 50    	sub.b     w0, w2, [w15]
 4e0:	ef ff 32    	bra       Z, 0x4c0 <.L33> <.eb> <.eb>
 4e2:	00 40 e8    	inc.b     w0, w0
 4e4:	00 74 a1    	bclr.b    w0, #0x7
 4e6:	81 80 fb    	ze        w1, w1
 4e8:	e8 c0 78    	mov.b     [w8+w1], w1
 4ea:	83 cf 50    	sub.b     w1, w3, [w15]
 4ec:	e9 ff 32    	bra       Z, 0x4c0 <.L33> <.eb> <.eb>
 4ee:	80 40 78    	mov.b     w0, w1
 4f0:	f6 ff 37    	bra       0x4de <.L40>

000004f2 <.L53>:
 4f2:	80 4c 78    	mov.b     w0, [w9]
 4f4:	a0 89 20    	mov.w     #0x89a, w0
 4f6:	03 48 78    	mov.b     w3, [w0]
 4f8:	82 4d 78    	mov.b     w2, [w11]
 4fa:	10 c0 b3    	mov.b     #0x1, w0
 4fc:	02 04 e0    	cp0.b     w2
 4fe:	e2 ff 3a    	bra       NZ, 0x4c4 <.L35> <.eb> <.eb>
 500:	2f 06 07    	rcall     0x1160 <_ReportRcProtocolError> <.bb> <.bf> <.eb> <.ef>
 502:	00 40 eb    	clr.b     w0

00000504 <.L57>:
 504:	4f 05 be    	mov.d     [--w15], w10
 506:	4f 04 be    	mov.d     [--w15], w8
 508:	00 00 06    	return    
 50a:	df ff 37    	bra       0x4ca <.L52> <.L58>

0000050c <.L54>:
 50c:	80 4c 78    	mov.b     w0, [w9]
 50e:	a0 89 20    	mov.w     #0x89a, w0
 510:	03 48 78    	mov.b     w3, [w0]
 512:	82 4d 78    	mov.b     w2, [w11]
 514:	25 06 07    	rcall     0x1160 <_ReportRcProtocolError> <.bb> <.bf> <.eb> <.ef>
 516:	00 40 eb    	clr.b     w0
 518:	f5 ff 37    	bra       0x504 <.L57>

0000051a <_WindRcFifo>:
 51a:	d5 d6 20    	mov.w     #0xd6d, w5
 51c:	15 40 78    	mov.b     [w5], w0
 51e:	85 00 e9    	dec.w     w5, w1
 520:	11 41 78    	mov.b     [w1], w2
 522:	f4 f7 2f    	mov.w     #0xff7f, w4
 524:	05 02 42    	add.w     w4, w5, w4
 526:	b3 ca b3    	mov.b     #0xab, w3

00000528 <.L62>:
 528:	82 4f 50    	sub.b     w0, w2, [w15]
 52a:	06 00 32    	bra       Z, 0x538 <.L61>
 52c:	80 80 fb    	ze        w0, w1
 52e:	e4 c0 78    	mov.b     [w4+w1], w1
 530:	00 40 e8    	inc.b     w0, w0
 532:	00 74 a1    	bclr.b    w0, #0x7
 534:	83 cf 50    	sub.b     w1, w3, [w15]
 536:	f8 ff 3a    	bra       NZ, 0x528 <.L62>

00000538 <.L61>:
 538:	80 4a 78    	mov.b     w0, [w5]
 53a:	00 00 06    	return    

0000053c <__DefaultInterrupt>:
 53c:	00 40 da    	break     
 53e:	00 00 fe    	reset     

00000540 <_memmove>:
 540:	00 02 78    	mov.w     w0, w4
 542:	80 8f 50    	sub.w     w1, w0, [w15]
 544:	0c 00 31    	bra       C, 0x55e <.L3>
 546:	82 81 40    	add.w     w1, w2, w3
 548:	83 0f 50    	sub.w     w0, w3, [w15]
 54a:	09 00 31    	bra       C, 0x55e <.L3>
 54c:	82 00 40    	add.w     w0, w2, w1
 54e:	02 00 37    	bra       0x554 <.L5>

00000550 <.L6>:
 550:	c3 60 78    	mov.b     [--w3], [--w1]
 552:	02 01 e9    	dec.w     w2, w2

00000554 <.L5>:
 554:	02 00 e0    	cp0.w     w2
 556:	fc ff 3a    	bra       NZ, 0x550 <.L6>
 558:	00 00 06    	return    

0000055a <.L8>:
 55a:	31 5a 78    	mov.b     [w1++], [w4++]
 55c:	02 01 e9    	dec.w     w2, w2

0000055e <.L3>:
 55e:	02 00 e0    	cp0.w     w2
 560:	fc ff 3a    	bra       NZ, 0x55a <.L8>
 562:	00 00 06    	return    

00000564 <_memcmp>:
 564:	09 00 37    	bra       0x578 <.L2>

00000566 <.L5>:
 566:	30 42 78    	mov.b     [w0++], w4
 568:	b1 41 78    	mov.b     [w1++], w3
 56a:	83 4f 52    	sub.b     w4, w3, [w15]
 56c:	04 00 32    	bra       Z, 0x576 <.L3>
 56e:	10 00 20    	mov.w     #0x1, w0
 570:	06 00 31    	bra       C, 0x57e <.L4>
 572:	00 80 eb    	setm.w    w0
 574:	00 00 06    	return    

00000576 <.L3>:
 576:	02 01 e9    	dec.w     w2, w2

00000578 <.L2>:
 578:	02 00 e0    	cp0.w     w2
 57a:	f5 ff 3a    	bra       NZ, 0x566 <.L5>
 57c:	00 00 eb    	clr.w     w0

0000057e <.L4>:
 57e:	00 00 06    	return    

00000580 <___udivsi3>:
 580:	60 22 b8    	mul.uu    w4, #0x0, w4
 582:	06 02 20    	mov.w     #0x20, w6

00000584 <nextbit>:
 584:	00 00 d0    	sl.w      w0, w0
 586:	81 80 d2    	rlc.w     w1, w1
 588:	04 82 d2    	rlc.w     w4, w4
 58a:	85 82 d2    	rlc.w     w5, w5
 58c:	00 00 a0    	bset.w    w0, #0x0
 58e:	02 02 52    	sub.w     w4, w2, w4
 590:	83 82 5a    	subb.w    w5, w3, w5
 592:	03 00 31    	bra       C, 0x59a <iterate>
 594:	02 02 42    	add.w     w4, w2, w4
 596:	83 82 4a    	addc.w    w5, w3, w5
 598:	00 00 a1    	bclr.w    w0, #0x0

0000059a <iterate>:
 59a:	06 03 e9    	dec.w     w6, w6
 59c:	f3 ff 3a    	bra       NZ, 0x584 <nextbit>
 59e:	00 00 06    	return    

000005a0 <___divsi3>:
 5a0:	83 9f 68    	xor.w     w1, w3, [w15++]
 5a2:	01 00 e0    	cp0.w     w1
 5a4:	02 00 3d    	bra       GE, 0x5aa <divtestb>
 5a6:	60 00 10    	subr.w    w0, #0x0, w0
 5a8:	e0 80 18    	subbr.w   w1, #0x0, w1

000005aa <divtestb>:
 5aa:	03 00 e0    	cp0.w     w3
 5ac:	02 00 3d    	bra       GE, 0x5b2 <calcquot>
 5ae:	60 01 11    	subr.w    w2, #0x0, w2
 5b0:	e0 81 19    	subbr.w   w3, #0x0, w3

000005b2 <calcquot>:
 5b2:	e6 ff 07    	rcall     0x580 <___udivsi3> <.libm>
 5b4:	4f 00 e0    	cp0.w     [--w15]
 5b6:	02 00 3b    	bra       NN, 0x5bc <returnq>
 5b8:	60 00 10    	subr.w    w0, #0x0, w0
 5ba:	e0 80 18    	subbr.w   w1, #0x0, w1

000005bc <returnq>:
 5bc:	00 00 06    	return    
Disassembly of section __FBS:

00f80000 <__FBS.sec>:
  f80000:	ff ff 00    	nop       
Disassembly of section __FSS:

00f80002 <__FSS.sec>:
  f80002:	ff ff 00    	nop       
Disassembly of section __FGS:

00f80004 <__FGS.sec>:
  f80004:	ff ff 00    	nop       
Disassembly of section .ivt._T1Interrupt:

0000001a <.ivt._T1Interrupt>:
  1a:	a4 18 00    	nop       
Disassembly of section .ivt._U1RXInterrupt:

0000002a <.ivt._U1RXInterrupt>:
  2a:	e8 02 00    	nop       
Disassembly of section .ivt._U1TXInterrupt:

0000002c <.ivt._U1TXInterrupt>:
  2c:	3e 03 00    	nop       
Disassembly of section .config_JTAGEN:

00f8000e <__config_JTAGEN>:
  f8000e:	df ff 00    	nop       
Disassembly of section .config_PWMPIN:

00f8000c <__config_PWMPIN>:
  f8000c:	f7 00 00    	nop       
Disassembly of section .config_FWDTEN:

00f8000a <__config_FWDTEN>:
  f8000a:	5f 00 00    	nop       
Disassembly of section .config_FCKSM:

00f80008 <__config_FCKSM>:
  f80008:	a1 00 00    	nop       
Disassembly of section .config_IESO:

00f80006 <__config_IESO>:
  f80006:	83 00 00    	nop       
Disassembly of section .ivt._INT0Interrupt:

00000014 <.ivt._INT0Interrupt>:
  14:	30 16 00    	nop       
Disassembly of section .text:

000005c4 <_CalcTByV>:
     5c4:	02 00 fa    	lnk       #0x2
     5c6:	d1 71 80    	mov.w     0xe3a, w1
     5c8:	80 8f 50    	sub.w     w1, w0, [w15]
     5ca:	3b 00 3d    	bra       GE, 0x642 <.L15> <.L2>
     5cc:	f2 00 20    	mov.w     #0xf, w2
     5ce:	01 c1 b3    	mov.b     #0x10, w1
     5d0:	03 01 20    	mov.w     #0x10, w3
     5d2:	a4 e4 20    	mov.w     #0xe4a, w4
     5d4:	94 0f 50    	sub.w     w0, [w4], [w15]
     5d6:	03 00 34    	bra       LE, 0x5de <.L4>
     5d8:	72 01 20    	mov.w     #0x17, w2
     5da:	81 c1 b3    	mov.b     #0x18, w1
     5dc:	83 01 20    	mov.w     #0x18, w3

000005de <.L4>:
     5de:	03 82 41    	add.w     w3, w3, w4
     5e0:	c3 e1 20    	mov.w     #0xe1c, w3
     5e2:	63 02 7a    	mov.w     [w3+w4], w4
     5e4:	84 0f 50    	sub.w     w0, w4, [w15]
     5e6:	3b 00 34    	bra       LE, 0x65e <.L14>

000005e8 <.L10>:
     5e8:	81 40 e8    	inc.b     w1, w1
     5ea:	01 81 fb    	ze        w1, w2
     5ec:	02 01 41    	add.w     w2, w2, w2
     5ee:	63 01 79    	mov.w     [w3+w2], w2
     5f0:	82 0f 50    	sub.w     w0, w2, [w15]
     5f2:	02 00 34    	bra       LE, 0x5f8 <.L12>
     5f4:	ff cf 50    	sub.b     w1, #0x1f, [w15]
     5f6:	f8 ff 36    	bra       LEU, 0x5e8 <.L10>

000005f8 <.L12>:
     5f8:	81 40 e9    	dec.b     w1, w1
     5fa:	01 81 fb    	ze        w1, w2
     5fc:	64 84 20    	mov.w     #0x846, w4
     5fe:	01 4a 78    	mov.b     w1, [w4]
     600:	11 89 20    	mov.w     #0x891, w1
     602:	91 40 78    	mov.b     [w1], w1
     604:	81 80 fb    	ze        w1, w1
     606:	02 01 41    	add.w     w2, w2, w2
     608:	63 02 79    	mov.w     [w3+w2], w4
     60a:	04 00 50    	sub.w     w0, w4, w0
     60c:	01 82 b9    	mul.ss    w0, w1, w4
     60e:	c0 eb 20    	mov.w     #0xebc, w0
     610:	e0 01 79    	mov.w     [w0+w2], w3
     612:	03 a2 b9    	mul.ss    w4, w3, w4
     614:	54 40 88    	mov.w     w4, 0x80a
     616:	65 40 88    	mov.w     w5, 0x80c
     618:	0b c8 bf    	mov.b     0x80b, WREG
     61a:	e0 ff 9f    	mov.b     w0, [w15-2]
     61c:	c4 80 20    	mov.w     #0x80c, w4
     61e:	14 42 78    	mov.b     [w4], w4
     620:	f4 ff 9f    	mov.b     w4, [w15-1]
     622:	7f b8 97    	mov.w     [w15-2], w0
     624:	61 02 b9    	mul.su    w0, #0x1, w4
     626:	34 40 88    	mov.w     w4, 0x806
     628:	45 40 88    	mov.w     w5, 0x808
     62a:	00 8a b9    	mul.ss    w1, w0, w4
     62c:	cf a2 de    	asr.w     w4, #0xf, w5
     62e:	54 40 88    	mov.w     w4, 0x80a
     630:	65 40 88    	mov.w     w5, 0x80c
     632:	03 01 20    	mov.w     #0x10, w3
     634:	11 00 09    	repeat    #0x11
     636:	03 00 d8    	div.sw    w0, w3
     638:	c1 e5 20    	mov.w     #0xe5c, w1
     63a:	e1 00 79    	mov.w     [w1+w2], w1
     63c:	01 00 40    	add.w     w0, w1, w0
     63e:	00 80 fa    	ulnk      
     640:	00 00 06    	return    

00000642 <.L15>:
     642:	00 01 eb    	clr.w     w2
     644:	11 c0 b3    	mov.b     #0x1, w1
     646:	13 00 20    	mov.w     #0x1, w3
     648:	a4 e2 20    	mov.w     #0xe2a, w4
     64a:	94 0f 50    	sub.w     w0, [w4], [w15]
     64c:	c8 ff 34    	bra       LE, 0x5de <.L4>
     64e:	72 00 20    	mov.w     #0x7, w2
     650:	81 c0 b3    	mov.b     #0x8, w1
     652:	83 00 20    	mov.w     #0x8, w3
     654:	03 82 41    	add.w     w3, w3, w4
     656:	c3 e1 20    	mov.w     #0xe1c, w3
     658:	63 02 7a    	mov.w     [w3+w4], w4
     65a:	84 0f 50    	sub.w     w0, w4, [w15]
     65c:	c5 ff 3c    	bra       GT, 0x5e8 <.L10>

0000065e <.L14>:
     65e:	81 40 e9    	dec.b     w1, w1
     660:	64 84 20    	mov.w     #0x846, w4
     662:	01 4a 78    	mov.b     w1, [w4]
     664:	11 89 20    	mov.w     #0x891, w1
     666:	91 40 78    	mov.b     [w1], w1
     668:	81 80 fb    	ze        w1, w1
     66a:	02 01 41    	add.w     w2, w2, w2
     66c:	63 02 79    	mov.w     [w3+w2], w4
     66e:	04 00 50    	sub.w     w0, w4, w0
     670:	01 82 b9    	mul.ss    w0, w1, w4
     672:	c0 eb 20    	mov.w     #0xebc, w0
     674:	e0 01 79    	mov.w     [w0+w2], w3
     676:	03 a2 b9    	mul.ss    w4, w3, w4
     678:	54 40 88    	mov.w     w4, 0x80a
     67a:	65 40 88    	mov.w     w5, 0x80c
     67c:	0b c8 bf    	mov.b     0x80b, WREG
     67e:	e0 ff 9f    	mov.b     w0, [w15-2]
     680:	c4 80 20    	mov.w     #0x80c, w4
     682:	14 42 78    	mov.b     [w4], w4
     684:	f4 ff 9f    	mov.b     w4, [w15-1]
     686:	7f b8 97    	mov.w     [w15-2], w0
     688:	61 02 b9    	mul.su    w0, #0x1, w4
     68a:	34 40 88    	mov.w     w4, 0x806
     68c:	45 40 88    	mov.w     w5, 0x808
     68e:	00 8a b9    	mul.ss    w1, w0, w4
     690:	cf a2 de    	asr.w     w4, #0xf, w5
     692:	54 40 88    	mov.w     w4, 0x80a
     694:	65 40 88    	mov.w     w5, 0x80c
     696:	03 01 20    	mov.w     #0x10, w3
     698:	11 00 09    	repeat    #0x11
     69a:	03 00 d8    	div.sw    w0, w3
     69c:	c1 e5 20    	mov.w     #0xe5c, w1
     69e:	e1 00 79    	mov.w     [w1+w2], w1
     6a0:	01 00 40    	add.w     w0, w1, w0
     6a2:	00 80 fa    	ulnk      
     6a4:	00 00 06    	return    
     6a6:	cd ff 37    	bra       0x642 <.L15> <.L2>

000006a8 <_task_HeaterPid_body>:
     6a8:	ea 87 47    	add.w     w15, #0xa, w15
     6aa:	88 9f be    	mov.d     w8, [w15++]
     6ac:	8a 9f be    	mov.d     w10, [w15++]
     6ae:	8c 9f be    	mov.d     w12, [w15++]
     6b0:	8e 1f 78    	mov.w     w14, [w15++]
     6b2:	4b f4 20    	mov.w     #0xf44, w11
     6b4:	0b 85 e8    	inc2.w    w11, w10
     6b6:	8a 84 e8    	inc2.w    w10, w9
     6b8:	09 84 e8    	inc2.w    w9, w8
     6ba:	4e f2 20    	mov.w     #0xf24, w14
     6bc:	bc e5 29    	mov.w     #0x9e5b, w12
     6be:	fd ff 23    	mov.w     #0x3fff, w13

000006c0 <.L52>:
     6c0:	40 1f 20    	mov.w     #0x1f4, w0
     6c2:	01 00 20    	mov.w     #0x0, w1
     6c4:	1e 0d 07    	rcall     0x2102 <.eb> <.ef> <_tn_task_sleep> <.bb> <.bf> <.text.tn_task_sleep>
     6c6:	0c 00 78    	mov.w     w12, w0
     6c8:	00 01 b4    	add.w     0x100, WREG
     6ca:	80 00 78    	mov.w     w0, w1
     6cc:	71 42 88    	mov.w     w1, 0x84e
     6ce:	01 08 88    	mov.w     w1, 0x100
     6d0:	26 13 07    	rcall     0x2d1e <_ReadADC8x14_0_3> <.bb> <.bf> <.eb> <.ef>
     6d2:	4a 48 ec    	inc.b     0x84a, WREG
     6d4:	4a e8 b7    	mov.b     WREG, 0x84a
     6d6:	00 80 fb    	ze        w0, w0
     6d8:	00 18 a3    	btst.z    w0, #0x1
     6da:	18 00 3a    	bra       NZ, 0x70c <.L19>

000006dc <.L57>:
     6dc:	00 08 a3    	btst.z    w0, #0x0
     6de:	21 00 3a    	bra       NZ, 0x722 <.L20>
     6e0:	21 7a 80    	mov.w     0xf44, w1
     6e2:	81 42 88    	mov.w     w1, 0x850
     6e4:	32 7a 80    	mov.w     0xf46, w2
     6e6:	92 42 88    	mov.w     w2, 0x852
     6e8:	43 7a 80    	mov.w     0xf48, w3
     6ea:	a3 42 88    	mov.w     w3, 0x854
     6ec:	54 7a 80    	mov.w     0xf4a, w4
     6ee:	b4 42 88    	mov.w     w4, 0x856
     6f0:	40 1f 20    	mov.w     #0x1f4, w0
     6f2:	01 00 20    	mov.w     #0x0, w1
     6f4:	06 0d 07    	rcall     0x2102 <.eb> <.ef> <_tn_task_sleep> <.bb> <.bf> <.text.tn_task_sleep>
     6f6:	0c 00 78    	mov.w     w12, w0
     6f8:	00 01 b4    	add.w     0x100, WREG
     6fa:	80 00 78    	mov.w     w0, w1
     6fc:	71 42 88    	mov.w     w1, 0x84e
     6fe:	01 08 88    	mov.w     w1, 0x100
     700:	0e 13 07    	rcall     0x2d1e <_ReadADC8x14_0_3> <.bb> <.bf> <.eb> <.ef>
     702:	4a 48 ec    	inc.b     0x84a, WREG
     704:	4a e8 b7    	mov.b     WREG, 0x84a
     706:	00 80 fb    	ze        w0, w0
     708:	00 18 a3    	btst.z    w0, #0x1
     70a:	e8 ff 32    	bra       Z, 0x6dc <.L57>

0000070c <.L19>:
     70c:	00 08 a3    	btst.z    w0, #0x0
     70e:	3f 01 3a    	bra       NZ, 0x98e <.L23>
     710:	25 7a 80    	mov.w     0xf44, w5
     712:	c5 42 88    	mov.w     w5, 0x858
     714:	36 7a 80    	mov.w     0xf46, w6
     716:	d6 42 88    	mov.w     w6, 0x85a
     718:	47 7a 80    	mov.w     0xf48, w7
     71a:	e7 42 88    	mov.w     w7, 0x85c
     71c:	50 7a 80    	mov.w     0xf4a, w0
     71e:	f0 42 88    	mov.w     w0, 0x85e
     720:	cf ff 37    	bra       0x6c0 <.L52>

00000722 <.L20>:
     722:	87 42 80    	mov.w     0x850, w7
     724:	9b 83 43    	add.w     w7, [w11], w7
     726:	87 42 88    	mov.w     w7, 0x850
     728:	95 42 80    	mov.w     0x852, w5
     72a:	9a 82 42    	add.w     w5, [w10], w5
     72c:	95 42 88    	mov.w     w5, 0x852
     72e:	a3 42 80    	mov.w     0x854, w3
     730:	99 81 41    	add.w     w3, [w9], w3
     732:	a3 42 88    	mov.w     w3, 0x854
     734:	b1 42 80    	mov.w     0x856, w1
     736:	98 80 40    	add.w     w1, [w8], w1
     738:	b1 42 88    	mov.w     w1, 0x856
     73a:	c0 42 80    	mov.w     0x858, w0
     73c:	d6 42 80    	mov.w     0x85a, w6
     73e:	e4 42 80    	mov.w     0x85c, w4
     740:	f2 42 80    	mov.w     0x85e, w2

00000742 <.L22>:
     742:	00 80 43    	add.w     w7, w0, w0
     744:	42 00 de    	lsr.w     w0, #0x2, w0
     746:	00 43 88    	mov.w     w0, 0x860
     748:	85 02 43    	add.w     w6, w5, w5
     74a:	c2 2a de    	lsr.w     w5, #0x2, w5
     74c:	15 43 88    	mov.w     w5, 0x862
     74e:	83 01 42    	add.w     w4, w3, w3
     750:	c2 19 de    	lsr.w     w3, #0x2, w3
     752:	23 43 88    	mov.w     w3, 0x864
     754:	81 00 41    	add.w     w2, w1, w1
     756:	c2 08 de    	lsr.w     w1, #0x2, w1
     758:	31 43 88    	mov.w     w1, 0x866
     75a:	3d 48 e2    	cp0.b     0x83d
     75c:	0c 01 3a    	bra       NZ, 0x976 <.L24>
     75e:	3c 48 e2    	cp0.b     0x83c
     760:	01 01 3a    	bra       NZ, 0x964 <.L55>
     762:	02 40 80    	mov.w     0x800, w2
     764:	71 41 80    	mov.w     0x82e, w1
     766:	81 0f 51    	sub.w     w2, w1, [w15]
     768:	59 01 32    	bra       Z, 0xa1c <.L58>
     76a:	3e 68 ef    	clr.b     0x83e
     76c:	ce 00 3d    	bra       GE, 0x90a <.L29>
     76e:	82 41 80    	mov.w     0x830, w2
     770:	93 41 80    	mov.w     0x832, w3
     772:	a4 41 80    	mov.w     0x834, w4
     774:	b5 41 80    	mov.w     0x836, w5
     776:	04 02 41    	add.w     w2, w4, w4
     778:	85 82 49    	addc.w    w3, w5, w5
     77a:	a4 41 88    	mov.w     w4, 0x834
     77c:	b5 41 88    	mov.w     w5, 0x836
     77e:	b2 41 80    	mov.w     0x836, w2
     780:	02 40 88    	mov.w     w2, 0x800
     782:	82 8f 50    	sub.w     w1, w2, [w15]
     784:	ce 00 35    	bra       LT, 0x922 <.L53>

00000786 <.L28>:
     786:	30 40 88    	mov.w     w0, 0x806
     788:	08 28 ef    	clr.w     0x808
     78a:	72 44 80    	mov.w     0x88e, w2
     78c:	cf 91 de    	asr.w     w2, #0xf, w3
     78e:	00 9a b9    	mul.ss    w3, w0, w4
     790:	02 00 b8    	mul.uu    w0, w2, w0
     792:	81 00 42    	add.w     w4, w1, w1
     794:	50 40 88    	mov.w     w0, 0x80a
     796:	61 40 88    	mov.w     w1, 0x80c
     798:	b5 80 20    	mov.w     #0x80b, w5
     79a:	95 42 78    	mov.b     [w5], w5
     79c:	e6 84 20    	mov.w     #0x84e, w6
     79e:	05 4b 78    	mov.b     w5, [w6]
     7a0:	c7 80 20    	mov.w     #0x80c, w7
     7a2:	97 43 78    	mov.b     [w7], w7
     7a4:	f0 84 20    	mov.w     #0x84f, w0
     7a6:	07 48 78    	mov.b     w7, [w0]
     7a8:	70 42 80    	mov.w     0x84e, w0
     7aa:	0c ff 07    	rcall     0x5c4 <_CalcTByV> <.bb> <.bf> <.text>
     7ac:	c0 40 88    	mov.w     w0, 0x818
     7ae:	05 40 80    	mov.w     0x800, w5
     7b0:	80 80 52    	sub.w     w5, w0, w1
     7b2:	31 44 88    	mov.w     w1, 0x886
     7b4:	3f 48 ec    	inc.b     0x83f, WREG
     7b6:	63 40 60    	and.b     w0, #0x3, w0
     7b8:	3f e8 b7    	mov.b     WREG, 0x83f
     7ba:	d0 00 3a    	bra       NZ, 0x95c <.L30>

000007bc <.L60>:
     7bc:	2c 48 ec    	inc.b     0x82c, WREG
     7be:	6f 41 60    	and.b     w0, #0xf, w2
     7c0:	c3 82 20    	mov.w     #0x82c, w3
     7c2:	82 49 78    	mov.b     w2, [w3]
     7c4:	03 42 80    	mov.w     0x840, w3
     7c6:	02 81 fb    	ze        w2, w2
     7c8:	90 c8 bf    	mov.b     0x890, WREG
     7ca:	00 00 51    	sub.w     w2, w0, w0
     7cc:	6f 00 60    	and.w     w0, #0xf, w0
     7ce:	00 00 40    	add.w     w0, w0, w0
     7d0:	c6 e9 20    	mov.w     #0xe9c, w6
     7d2:	66 00 78    	mov.w     [w6+w0], w0
     7d4:	00 80 51    	sub.w     w3, w0, w0
     7d6:	50 44 88    	mov.w     w0, 0x88a
     7d8:	02 01 41    	add.w     w2, w2, w2
     7da:	03 33 79    	mov.w     w3, [w6+w2]
     7dc:	01 42 88    	mov.w     w1, 0x840

000007de <.L31>:
     7de:	42 44 80    	mov.w     0x888, w2
     7e0:	61 13 b9    	mul.su    w2, #0x1, w6
     7e2:	f6 b7 9f    	mov.w     w6, [w15-18]
     7e4:	87 bf 9f    	mov.w     w7, [w15-16]
     7e6:	c6 88 20    	mov.w     #0x88c, w6
     7e8:	16 43 78    	mov.b     [w6], w6
     7ea:	06 83 fb    	ze        w6, w6
     7ec:	80 03 eb    	clr.w     w7
     7ee:	8f b9 97    	mov.w     [w15-16], w3
     7f0:	06 99 b9    	mul.ss    w3, w6, w2
     7f2:	d2 b7 9f    	mov.w     w2, [w15-22]
     7f4:	e3 b7 9f    	mov.w     w3, [w15-20]
     7f6:	7f b2 97    	mov.w     [w15-18], w4
     7f8:	04 31 b8    	mul.uu    w6, w4, w2
     7fa:	5f b3 97    	mov.w     [w15-22], w6
     7fc:	83 01 43    	add.w     w6, w3, w3
     7fe:	52 40 88    	mov.w     w2, 0x80a
     800:	63 40 88    	mov.w     w3, 0x80c
     802:	b7 80 20    	mov.w     #0x80b, w7
     804:	97 43 78    	mov.b     [w7], w7
     806:	e2 84 20    	mov.w     #0x84e, w2
     808:	07 49 78    	mov.b     w7, [w2]
     80a:	c3 80 20    	mov.w     #0x80c, w3
     80c:	93 41 78    	mov.b     [w3], w3
     80e:	f4 84 20    	mov.w     #0x84f, w4
     810:	03 4a 78    	mov.b     w3, [w4]
     812:	73 42 80    	mov.w     0x84e, w3
     814:	83 81 40    	add.w     w1, w3, w3
     816:	43 44 88    	mov.w     w3, 0x888
     818:	b2 40 80    	mov.w     0x816, w2
     81a:	82 8f 50    	sub.w     w1, w2, [w15]
     81c:	73 00 3c    	bra       GT, 0x904 <.L32>
     81e:	02 01 ea    	neg.w     w2, w2
     820:	82 8f 50    	sub.w     w1, w2, [w15]
     822:	70 00 35    	bra       LT, 0x904 <.L32>

00000824 <.L33>:
     824:	92 40 80    	mov.w     0x812, w2
     826:	83 0f 51    	sub.w     w2, w3, [w15]
     828:	02 00 3d    	bra       GE, 0x82e <.L34>
     82a:	42 44 88    	mov.w     w2, 0x888
     82c:	82 01 78    	mov.w     w2, w3

0000082e <.L34>:
     82e:	02 01 ea    	neg.w     w2, w2
     830:	83 0f 51    	sub.w     w2, w3, [w15]
     832:	02 00 34    	bra       LE, 0x838 <.L35>
     834:	42 44 88    	mov.w     w2, 0x888
     836:	82 01 78    	mov.w     w2, w3

00000838 <.L35>:
     838:	f2 43 80    	mov.w     0x87e, w2
     83a:	01 93 b9    	mul.ss    w2, w1, w6
     83c:	c8 38 dd    	sl.w      w7, #0x8, w1
     83e:	48 33 de    	lsr.w     w6, #0x8, w6
     840:	06 83 70    	ior.w     w1, w6, w6
     842:	c8 bb de    	asr.w     w7, #0x8, w7
     844:	f6 b7 9f    	mov.w     w6, [w15-18]
     846:	87 bf 9f    	mov.w     w7, [w15-16]
     848:	02 44 80    	mov.w     0x880, w2
     84a:	03 91 b9    	mul.ss    w2, w3, w2
     84c:	c8 9b de    	asr.w     w3, #0x8, w7
     84e:	c8 18 dd    	sl.w      w3, #0x8, w1
     850:	48 13 de    	lsr.w     w2, #0x8, w6
     852:	06 83 70    	ior.w     w1, w6, w6
     854:	d6 b7 9f    	mov.w     w6, [w15-22]
     856:	e7 b7 9f    	mov.w     w7, [w15-20]
     858:	12 44 80    	mov.w     0x882, w2
     85a:	61 13 b9    	mul.su    w2, #0x1, w6
     85c:	36 40 88    	mov.w     w6, 0x806
     85e:	47 40 88    	mov.w     w7, 0x808
     860:	00 90 b9    	mul.ss    w2, w0, w0
     862:	c8 0b dd    	sl.w      w1, #0x8, w7
     864:	48 00 de    	lsr.w     w0, #0x8, w0
     866:	00 80 73    	ior.w     w7, w0, w0
     868:	c8 88 de    	asr.w     w1, #0x8, w1
     86a:	50 40 88    	mov.w     w0, 0x80a
     86c:	61 40 88    	mov.w     w1, 0x80c
     86e:	7f b1 97    	mov.w     [w15-18], w2
     870:	8f b9 97    	mov.w     [w15-16], w3
     872:	00 00 41    	add.w     w2, w0, w0
     874:	81 80 49    	addc.w    w3, w1, w1
     876:	5f b3 97    	mov.w     [w15-22], w6
     878:	ef b3 97    	mov.w     [w15-20], w7
     87a:	00 00 43    	add.w     w6, w0, w0
     87c:	81 80 4b    	addc.w    w7, w1, w1
     87e:	c0 41 88    	mov.w     w0, 0x838
     880:	d1 41 88    	mov.w     w1, 0x83a
     882:	f7 ff 27    	mov.w     #0x7fff, w7
     884:	87 0f 50    	sub.w     w0, w7, [w15]
     886:	e0 8f 58    	subb.w    w1, #0x0, [w15]
     888:	93 00 34    	bra       LE, 0x9b0 <.L36>
     88a:	f0 ff 27    	mov.w     #0x7fff, w0
     88c:	c0 41 88    	mov.w     w0, 0x838
     88e:	3a 28 ef    	clr.w     0x83a
     890:	f0 ff 27    	mov.w     #0x7fff, w0

00000892 <.L37>:
     892:	d0 40 88    	mov.w     w0, 0x81a

00000894 <.bb>:
     894:	00 41 80    	mov.w     0x820, w0
     896:	80 8f 52    	sub.w     w5, w0, [w15]
     898:	99 00 3d    	bra       GE, 0x9cc <.L39>

0000089a <.L61>:
     89a:	e6 40 80    	mov.w     0x81c, w6
     89c:	86 8f 52    	sub.w     w5, w6, [w15]
     89e:	cc 00 35    	bra       LT, 0xa38 <.L59> <.bb>
     8a0:	f1 40 80    	mov.w     0x81e, w1
     8a2:	81 8f 52    	sub.w     w5, w1, [w15]
     8a4:	cb 00 3d    	bra       GE, 0xa3c <.L42>
     8a6:	34 41 80    	mov.w     0x826, w4
     8a8:	23 41 80    	mov.w     0x824, w3
     8aa:	01 01 78    	mov.w     w1, w2
     8ac:	86 00 78    	mov.w     w6, w1
     8ae:	05 00 78    	mov.w     w5, w0
     8b0:	6a 04 07    	rcall     0x1186 <_linterp> <.bb> <.bf> <.eb> <.ef> <.text>
     8b2:	00 01 78    	mov.w     w0, w2

000008b4 <.L41>:
     8b4:	72 40 88    	mov.w     w2, 0x80e
     8b6:	21 44 80    	mov.w     0x884, w1
     8b8:	61 0a b9    	mul.su    w1, #0x1, w4
     8ba:	34 40 88    	mov.w     w4, 0x806
     8bc:	45 40 88    	mov.w     w5, 0x808
     8be:	02 89 b9    	mul.ss    w1, w2, w2
     8c0:	48 1a dd    	sl.w      w3, #0x8, w4
     8c2:	48 11 de    	lsr.w     w2, #0x8, w2
     8c4:	02 01 72    	ior.w     w4, w2, w2
     8c6:	c8 99 de    	asr.w     w3, #0x8, w3
     8c8:	52 40 88    	mov.w     w2, 0x80a
     8ca:	63 40 88    	mov.w     w3, 0x80c
     8cc:	c0 41 80    	mov.w     0x838, w0
     8ce:	d1 41 80    	mov.w     0x83a, w1
     8d0:	02 01 40    	add.w     w0, w2, w2
     8d2:	83 81 48    	addc.w    w1, w3, w3
     8d4:	c2 41 88    	mov.w     w2, 0x838
     8d6:	d3 41 88    	mov.w     w3, 0x83a
     8d8:	f5 ff 27    	mov.w     #0x7fff, w5
     8da:	85 0f 51    	sub.w     w2, w5, [w15]
     8dc:	e0 8f 59    	subb.w    w3, #0x0, [w15]
     8de:	90 00 34    	bra       LE, 0xa00 <.L44>

000008e0 <.L63>:
     8e0:	f6 ff 27    	mov.w     #0x7fff, w6
     8e2:	c6 41 88    	mov.w     w6, 0x838
     8e4:	3a 28 ef    	clr.w     0x83a
     8e6:	f7 ff 27    	mov.w     #0x7fff, w7
     8e8:	87 40 88    	mov.w     w7, 0x810

000008ea <.L45>:
     8ea:	4d 42 88    	mov.w     w13, 0x848
     8ec:	0d 00 78    	mov.w     w13, w0

000008ee <.L49>:
     8ee:	04 48 e2    	cp0.b     0x804
     8f0:	39 00 3a    	bra       NZ, 0x964 <.L55>
     8f2:	20 79 88    	mov.w     w0, 0xf24
     8f4:	60 42 88    	mov.w     w0, 0x84c
     8f6:	d8 04 07    	rcall     0x12a8 <_Limiter> <.bb> <.bf> <.eb> <.ef> <.text>
     8f8:	21 79 80    	mov.w     0xf24, w1
     8fa:	00 40 eb    	clr.b     w0
     8fc:	a1 0d 07    	rcall     0x2440 <.eb> <.ef> <_LoadDac> <.bb> <.bf> <.text>
     8fe:	63 42 80    	mov.w     0x84c, w3
     900:	23 79 88    	mov.w     w3, 0xf24
     902:	de fe 37    	bra       0x6c0 <.L52>

00000904 <.L32>:
     904:	88 28 ef    	clr.w     0x888
     906:	80 01 eb    	clr.w     w3
     908:	8d ff 37    	bra       0x824 <.L33>

0000090a <.L29>:
     90a:	82 41 80    	mov.w     0x830, w2
     90c:	93 41 80    	mov.w     0x832, w3
     90e:	a4 41 80    	mov.w     0x834, w4
     910:	b5 41 80    	mov.w     0x836, w5
     912:	02 01 52    	sub.w     w4, w2, w2
     914:	83 81 5a    	subb.w    w5, w3, w3
     916:	a2 41 88    	mov.w     w2, 0x834
     918:	b3 41 88    	mov.w     w3, 0x836
     91a:	b2 41 80    	mov.w     0x836, w2
     91c:	02 40 88    	mov.w     w2, 0x800
     91e:	82 8f 50    	sub.w     w1, w2, [w15]
     920:	32 ff 34    	bra       LE, 0x786 <.L28>

00000922 <.L53>:
     922:	01 40 88    	mov.w     w1, 0x800
     924:	b1 41 88    	mov.w     w1, 0x836
     926:	30 40 88    	mov.w     w0, 0x806
     928:	08 28 ef    	clr.w     0x808
     92a:	72 44 80    	mov.w     0x88e, w2
     92c:	cf 91 de    	asr.w     w2, #0xf, w3
     92e:	00 9a b9    	mul.ss    w3, w0, w4
     930:	02 00 b8    	mul.uu    w0, w2, w0
     932:	81 00 42    	add.w     w4, w1, w1
     934:	50 40 88    	mov.w     w0, 0x80a
     936:	61 40 88    	mov.w     w1, 0x80c
     938:	b5 80 20    	mov.w     #0x80b, w5
     93a:	95 42 78    	mov.b     [w5], w5
     93c:	e6 84 20    	mov.w     #0x84e, w6
     93e:	05 4b 78    	mov.b     w5, [w6]
     940:	c7 80 20    	mov.w     #0x80c, w7
     942:	97 43 78    	mov.b     [w7], w7
     944:	f0 84 20    	mov.w     #0x84f, w0
     946:	07 48 78    	mov.b     w7, [w0]
     948:	70 42 80    	mov.w     0x84e, w0
     94a:	3c fe 07    	rcall     0x5c4 <_CalcTByV> <.bb> <.bf> <.text>
     94c:	c0 40 88    	mov.w     w0, 0x818
     94e:	05 40 80    	mov.w     0x800, w5
     950:	80 80 52    	sub.w     w5, w0, w1
     952:	31 44 88    	mov.w     w1, 0x886
     954:	3f 48 ec    	inc.b     0x83f, WREG
     956:	63 40 60    	and.b     w0, #0x3, w0
     958:	3f e8 b7    	mov.b     WREG, 0x83f
     95a:	30 ff 32    	bra       Z, 0x7bc <.L60>

0000095c <.L30>:
     95c:	01 00 78    	mov.w     w1, w0
     95e:	40 28 b4    	add.w     0x840
     960:	50 44 80    	mov.w     0x88a, w0
     962:	3d ff 37    	bra       0x7de <.L31>

00000964 <.L55>:
     964:	20 79 80    	mov.w     0xf24, w0
     966:	60 42 88    	mov.w     w0, 0x84c
     968:	9f 04 07    	rcall     0x12a8 <_Limiter> <.bb> <.bf> <.eb> <.ef> <.text>
     96a:	21 79 80    	mov.w     0xf24, w1
     96c:	00 40 eb    	clr.b     w0
     96e:	68 0d 07    	rcall     0x2440 <.eb> <.ef> <_LoadDac> <.bb> <.bf> <.text>
     970:	63 42 80    	mov.w     0x84c, w3
     972:	23 79 88    	mov.w     w3, 0xf24
     974:	a5 fe 37    	bra       0x6c0 <.L52>

00000976 <.L24>:
     976:	04 48 e2    	cp0.b     0x804
     978:	f5 ff 3a    	bra       NZ, 0x964 <.L55>
     97a:	00 0f eb    	clr.w     [w14]
     97c:	00 00 eb    	clr.w     w0
     97e:	60 42 88    	mov.w     w0, 0x84c
     980:	93 04 07    	rcall     0x12a8 <_Limiter> <.bb> <.bf> <.eb> <.ef> <.text>
     982:	21 79 80    	mov.w     0xf24, w1
     984:	00 40 eb    	clr.b     w0
     986:	5c 0d 07    	rcall     0x2440 <.eb> <.ef> <_LoadDac> <.bb> <.bf> <.text>
     988:	63 42 80    	mov.w     0x84c, w3
     98a:	23 79 88    	mov.w     w3, 0xf24
     98c:	99 fe 37    	bra       0x6c0 <.L52>

0000098e <.L23>:
     98e:	c0 42 80    	mov.w     0x858, w0
     990:	1b 00 40    	add.w     w0, [w11], w0
     992:	c0 42 88    	mov.w     w0, 0x858
     994:	d6 42 80    	mov.w     0x85a, w6
     996:	1a 03 43    	add.w     w6, [w10], w6
     998:	d6 42 88    	mov.w     w6, 0x85a
     99a:	e4 42 80    	mov.w     0x85c, w4
     99c:	19 02 42    	add.w     w4, [w9], w4
     99e:	e4 42 88    	mov.w     w4, 0x85c
     9a0:	f2 42 80    	mov.w     0x85e, w2
     9a2:	18 01 41    	add.w     w2, [w8], w2
     9a4:	f2 42 88    	mov.w     w2, 0x85e
     9a6:	87 42 80    	mov.w     0x850, w7
     9a8:	95 42 80    	mov.w     0x852, w5
     9aa:	a3 42 80    	mov.w     0x854, w3
     9ac:	b1 42 80    	mov.w     0x856, w1
     9ae:	c9 fe 37    	bra       0x742 <.L22>

000009b0 <.L36>:
     9b0:	02 00 28    	mov.w     #0x8000, w2
     9b2:	f3 ff 2f    	mov.w     #0xffff, w3
     9b4:	82 0f 50    	sub.w     w0, w2, [w15]
     9b6:	83 8f 58    	subb.w    w1, w3, [w15]
     9b8:	6c ff 3d    	bra       GE, 0x892 <.L37>
     9ba:	03 00 28    	mov.w     #0x8000, w3
     9bc:	c3 41 88    	mov.w     w3, 0x838
     9be:	f3 ff 2f    	mov.w     #0xffff, w3
     9c0:	d3 41 88    	mov.w     w3, 0x83a
     9c2:	00 00 28    	mov.w     #0x8000, w0
     9c4:	d0 40 88    	mov.w     w0, 0x81a

000009c6 <.bb>:
     9c6:	00 41 80    	mov.w     0x820, w0
     9c8:	80 8f 52    	sub.w     w5, w0, [w15]
     9ca:	67 ff 35    	bra       LT, 0x89a <.L61>

000009cc <.L39>:
     9cc:	12 41 80    	mov.w     0x822, w2
     9ce:	82 8f 52    	sub.w     w5, w2, [w15]
     9d0:	3c 00 35    	bra       LT, 0xa4a <.L62>
     9d2:	52 41 80    	mov.w     0x82a, w2

000009d4 <.eb>:
     9d4:	72 40 88    	mov.w     w2, 0x80e
     9d6:	21 44 80    	mov.w     0x884, w1
     9d8:	61 0a b9    	mul.su    w1, #0x1, w4
     9da:	34 40 88    	mov.w     w4, 0x806
     9dc:	45 40 88    	mov.w     w5, 0x808
     9de:	02 89 b9    	mul.ss    w1, w2, w2
     9e0:	48 1a dd    	sl.w      w3, #0x8, w4
     9e2:	48 11 de    	lsr.w     w2, #0x8, w2
     9e4:	02 01 72    	ior.w     w4, w2, w2
     9e6:	c8 99 de    	asr.w     w3, #0x8, w3
     9e8:	52 40 88    	mov.w     w2, 0x80a
     9ea:	63 40 88    	mov.w     w3, 0x80c
     9ec:	c0 41 80    	mov.w     0x838, w0
     9ee:	d1 41 80    	mov.w     0x83a, w1
     9f0:	02 01 40    	add.w     w0, w2, w2
     9f2:	83 81 48    	addc.w    w1, w3, w3
     9f4:	c2 41 88    	mov.w     w2, 0x838
     9f6:	d3 41 88    	mov.w     w3, 0x83a
     9f8:	f5 ff 27    	mov.w     #0x7fff, w5
     9fa:	85 0f 51    	sub.w     w2, w5, [w15]
     9fc:	e0 8f 59    	subb.w    w3, #0x0, [w15]
     9fe:	70 ff 3c    	bra       GT, 0x8e0 <.L63>

00000a00 <.L44>:
     a00:	00 00 28    	mov.w     #0x8000, w0
     a02:	f1 ff 2f    	mov.w     #0xffff, w1
     a04:	80 0f 51    	sub.w     w2, w0, [w15]
     a06:	81 8f 59    	subb.w    w3, w1, [w15]
     a08:	0d 00 3d    	bra       GE, 0xa24 <.L46>
     a0a:	01 00 28    	mov.w     #0x8000, w1
     a0c:	c1 41 88    	mov.w     w1, 0x838
     a0e:	f1 ff 2f    	mov.w     #0xffff, w1
     a10:	d1 41 88    	mov.w     w1, 0x83a
     a12:	02 00 28    	mov.w     #0x8000, w2
     a14:	82 40 88    	mov.w     w2, 0x810
     a16:	48 28 ef    	clr.w     0x848
     a18:	00 00 eb    	clr.w     w0
     a1a:	69 ff 37    	bra       0x8ee <.L49>

00000a1c <.L58>:
     a1c:	11 c0 b3    	mov.b     #0x1, w1
     a1e:	e2 83 20    	mov.w     #0x83e, w2
     a20:	01 49 78    	mov.b     w1, [w2]
     a22:	b1 fe 37    	bra       0x786 <.L28>

00000a24 <.L46>:
     a24:	02 00 78    	mov.w     w2, w0
     a26:	82 40 88    	mov.w     w2, 0x810
     a28:	42 42 88    	mov.w     w2, 0x848
     a2a:	8d 0f 51    	sub.w     w2, w13, [w15]
     a2c:	5e ff 3c    	bra       GT, 0x8ea <.L45>
     a2e:	02 00 e0    	cp0.w     w2
     a30:	5e ff 3d    	bra       GE, 0x8ee <.L49>
     a32:	48 28 ef    	clr.w     0x848
     a34:	00 00 eb    	clr.w     w0
     a36:	5b ff 37    	bra       0x8ee <.L49>

00000a38 <.L59>:
     a38:	22 41 80    	mov.w     0x824, w2
     a3a:	3c ff 37    	bra       0x8b4 <.L41> <.eb> <.eb>

00000a3c <.L42>:
     a3c:	44 41 80    	mov.w     0x828, w4
     a3e:	33 41 80    	mov.w     0x826, w3
     a40:	00 01 78    	mov.w     w0, w2
     a42:	05 00 78    	mov.w     w5, w0
     a44:	a0 03 07    	rcall     0x1186 <_linterp> <.bb> <.bf> <.eb> <.ef> <.text>
     a46:	00 01 78    	mov.w     w0, w2
     a48:	35 ff 37    	bra       0x8b4 <.L41> <.eb> <.eb>

00000a4a <.L62>:
     a4a:	54 41 80    	mov.w     0x82a, w4
     a4c:	43 41 80    	mov.w     0x828, w3
     a4e:	80 00 78    	mov.w     w0, w1
     a50:	05 00 78    	mov.w     w5, w0
     a52:	99 03 07    	rcall     0x1186 <_linterp> <.bb> <.bf> <.eb> <.ef> <.text>
     a54:	00 01 78    	mov.w     w0, w2
     a56:	2e ff 37    	bra       0x8b4 <.L41> <.eb> <.eb>

00000a58 <_FillTableT>:
     a58:	91 c8 bf    	mov.b     0x891, WREG
     a5a:	00 80 fb    	ze        w0, w0
     a5c:	80 00 eb    	clr.w     w1
     a5e:	44 0b dd    	sl.w      w1, #0x4, w6
     a60:	cc 03 de    	lsr.w     w0, #0xc, w7
     a62:	87 03 73    	ior.w     w6, w7, w7
     a64:	44 03 dd    	sl.w      w0, #0x4, w6
     a66:	36 40 88    	mov.w     w6, 0x806
     a68:	47 40 88    	mov.w     w7, 0x808
     a6a:	06 02 78    	mov.w     w6, w4
     a6c:	c2 e5 20    	mov.w     #0xe5c, w2
     a6e:	82 00 78    	mov.w     w2, w1
     a70:	e3 03 20    	mov.w     #0x3e, w3
     a72:	82 81 41    	add.w     w3, w2, w3
     a74:	06 00 78    	mov.w     w6, w0

00000a76 <.L66>:
     a76:	92 28 40    	add.w     w0, [w2], [++w1]
     a78:	04 00 40    	add.w     w0, w4, w0
     a7a:	83 8f 50    	sub.w     w1, w3, [w15]
     a7c:	fc ff 3a    	bra       NZ, 0xa76 <.L66>
     a7e:	00 c2 b3    	mov.b     #0x20, w0
     a80:	46 e8 b7    	mov.b     WREG, 0x846
     a82:	00 00 06    	return    

00000a84 <_FillTableInvDV>:
     a84:	88 9f be    	mov.d     w8, [w15++]
     a86:	f9 70 80    	mov.w     0xe1e, w9
     a88:	c0 e1 20    	mov.w     #0xe1c, w0
     a8a:	10 81 54    	sub.w     w9, [w0], w2
     a8c:	cf 91 de    	asr.w     w2, #0xf, w3
     a8e:	00 00 20    	mov.w     #0x0, w0
     a90:	11 00 20    	mov.w     #0x1, w1
     a92:	86 fd 07    	rcall     0x5a0 <___divsi3> <.libm>
     a94:	e0 75 88    	mov.w     w0, 0xebc
     a96:	08 71 80    	mov.w     0xe20, w8
     a98:	09 01 54    	sub.w     w8, w9, w2
     a9a:	cf 91 de    	asr.w     w2, #0xf, w3
     a9c:	00 00 20    	mov.w     #0x0, w0
     a9e:	11 00 20    	mov.w     #0x1, w1
     aa0:	7f fd 07    	rcall     0x5a0 <___divsi3> <.libm>
     aa2:	f0 75 88    	mov.w     w0, 0xebe
     aa4:	19 71 80    	mov.w     0xe22, w9
     aa6:	08 81 54    	sub.w     w9, w8, w2
     aa8:	cf 91 de    	asr.w     w2, #0xf, w3
     aaa:	00 00 20    	mov.w     #0x0, w0
     aac:	11 00 20    	mov.w     #0x1, w1
     aae:	78 fd 07    	rcall     0x5a0 <___divsi3> <.libm>
     ab0:	00 76 88    	mov.w     w0, 0xec0
     ab2:	28 71 80    	mov.w     0xe24, w8
     ab4:	09 01 54    	sub.w     w8, w9, w2
     ab6:	cf 91 de    	asr.w     w2, #0xf, w3
     ab8:	00 00 20    	mov.w     #0x0, w0
     aba:	11 00 20    	mov.w     #0x1, w1
     abc:	71 fd 07    	rcall     0x5a0 <___divsi3> <.libm>
     abe:	10 76 88    	mov.w     w0, 0xec2
     ac0:	39 71 80    	mov.w     0xe26, w9
     ac2:	08 81 54    	sub.w     w9, w8, w2
     ac4:	cf 91 de    	asr.w     w2, #0xf, w3
     ac6:	00 00 20    	mov.w     #0x0, w0
     ac8:	11 00 20    	mov.w     #0x1, w1
     aca:	6a fd 07    	rcall     0x5a0 <___divsi3> <.libm>
     acc:	20 76 88    	mov.w     w0, 0xec4
     ace:	48 71 80    	mov.w     0xe28, w8
     ad0:	09 01 54    	sub.w     w8, w9, w2
     ad2:	cf 91 de    	asr.w     w2, #0xf, w3
     ad4:	00 00 20    	mov.w     #0x0, w0
     ad6:	11 00 20    	mov.w     #0x1, w1
     ad8:	63 fd 07    	rcall     0x5a0 <___divsi3> <.libm>
     ada:	30 76 88    	mov.w     w0, 0xec6
     adc:	59 71 80    	mov.w     0xe2a, w9
     ade:	08 81 54    	sub.w     w9, w8, w2
     ae0:	cf 91 de    	asr.w     w2, #0xf, w3
     ae2:	00 00 20    	mov.w     #0x0, w0
     ae4:	11 00 20    	mov.w     #0x1, w1
     ae6:	5c fd 07    	rcall     0x5a0 <___divsi3> <.libm>
     ae8:	40 76 88    	mov.w     w0, 0xec8
     aea:	68 71 80    	mov.w     0xe2c, w8
     aec:	09 01 54    	sub.w     w8, w9, w2
     aee:	cf 91 de    	asr.w     w2, #0xf, w3
     af0:	00 00 20    	mov.w     #0x0, w0
     af2:	11 00 20    	mov.w     #0x1, w1
     af4:	55 fd 07    	rcall     0x5a0 <___divsi3> <.libm>
     af6:	50 76 88    	mov.w     w0, 0xeca
     af8:	79 71 80    	mov.w     0xe2e, w9
     afa:	08 81 54    	sub.w     w9, w8, w2
     afc:	cf 91 de    	asr.w     w2, #0xf, w3
     afe:	00 00 20    	mov.w     #0x0, w0
     b00:	11 00 20    	mov.w     #0x1, w1
     b02:	4e fd 07    	rcall     0x5a0 <___divsi3> <.libm>
     b04:	60 76 88    	mov.w     w0, 0xecc
     b06:	88 71 80    	mov.w     0xe30, w8
     b08:	09 01 54    	sub.w     w8, w9, w2
     b0a:	cf 91 de    	asr.w     w2, #0xf, w3
     b0c:	00 00 20    	mov.w     #0x0, w0
     b0e:	11 00 20    	mov.w     #0x1, w1
     b10:	47 fd 07    	rcall     0x5a0 <___divsi3> <.libm>
     b12:	70 76 88    	mov.w     w0, 0xece
     b14:	99 71 80    	mov.w     0xe32, w9
     b16:	08 81 54    	sub.w     w9, w8, w2
     b18:	cf 91 de    	asr.w     w2, #0xf, w3
     b1a:	00 00 20    	mov.w     #0x0, w0
     b1c:	11 00 20    	mov.w     #0x1, w1
     b1e:	40 fd 07    	rcall     0x5a0 <___divsi3> <.libm>
     b20:	80 76 88    	mov.w     w0, 0xed0
     b22:	a8 71 80    	mov.w     0xe34, w8
     b24:	09 01 54    	sub.w     w8, w9, w2
     b26:	cf 91 de    	asr.w     w2, #0xf, w3
     b28:	00 00 20    	mov.w     #0x0, w0
     b2a:	11 00 20    	mov.w     #0x1, w1
     b2c:	39 fd 07    	rcall     0x5a0 <___divsi3> <.libm>
     b2e:	90 76 88    	mov.w     w0, 0xed2
     b30:	b9 71 80    	mov.w     0xe36, w9
     b32:	08 81 54    	sub.w     w9, w8, w2
     b34:	cf 91 de    	asr.w     w2, #0xf, w3
     b36:	00 00 20    	mov.w     #0x0, w0
     b38:	11 00 20    	mov.w     #0x1, w1
     b3a:	32 fd 07    	rcall     0x5a0 <___divsi3> <.libm>
     b3c:	a0 76 88    	mov.w     w0, 0xed4
     b3e:	c8 71 80    	mov.w     0xe38, w8
     b40:	09 01 54    	sub.w     w8, w9, w2
     b42:	cf 91 de    	asr.w     w2, #0xf, w3
     b44:	00 00 20    	mov.w     #0x0, w0
     b46:	11 00 20    	mov.w     #0x1, w1
     b48:	2b fd 07    	rcall     0x5a0 <___divsi3> <.libm>
     b4a:	b0 76 88    	mov.w     w0, 0xed6
     b4c:	d9 71 80    	mov.w     0xe3a, w9
     b4e:	08 81 54    	sub.w     w9, w8, w2
     b50:	cf 91 de    	asr.w     w2, #0xf, w3
     b52:	00 00 20    	mov.w     #0x0, w0
     b54:	11 00 20    	mov.w     #0x1, w1
     b56:	24 fd 07    	rcall     0x5a0 <___divsi3> <.libm>
     b58:	c0 76 88    	mov.w     w0, 0xed8
     b5a:	e8 71 80    	mov.w     0xe3c, w8
     b5c:	09 01 54    	sub.w     w8, w9, w2
     b5e:	cf 91 de    	asr.w     w2, #0xf, w3
     b60:	00 00 20    	mov.w     #0x0, w0
     b62:	11 00 20    	mov.w     #0x1, w1
     b64:	1d fd 07    	rcall     0x5a0 <___divsi3> <.libm>
     b66:	d0 76 88    	mov.w     w0, 0xeda
     b68:	f9 71 80    	mov.w     0xe3e, w9
     b6a:	08 81 54    	sub.w     w9, w8, w2
     b6c:	cf 91 de    	asr.w     w2, #0xf, w3
     b6e:	00 00 20    	mov.w     #0x0, w0
     b70:	11 00 20    	mov.w     #0x1, w1
     b72:	16 fd 07    	rcall     0x5a0 <___divsi3> <.libm>
     b74:	e0 76 88    	mov.w     w0, 0xedc
     b76:	08 72 80    	mov.w     0xe40, w8
     b78:	09 01 54    	sub.w     w8, w9, w2
     b7a:	cf 91 de    	asr.w     w2, #0xf, w3
     b7c:	00 00 20    	mov.w     #0x0, w0
     b7e:	11 00 20    	mov.w     #0x1, w1
     b80:	0f fd 07    	rcall     0x5a0 <___divsi3> <.libm>
     b82:	f0 76 88    	mov.w     w0, 0xede
     b84:	19 72 80    	mov.w     0xe42, w9
     b86:	08 81 54    	sub.w     w9, w8, w2
     b88:	cf 91 de    	asr.w     w2, #0xf, w3
     b8a:	00 00 20    	mov.w     #0x0, w0
     b8c:	11 00 20    	mov.w     #0x1, w1
     b8e:	08 fd 07    	rcall     0x5a0 <___divsi3> <.libm>
     b90:	00 77 88    	mov.w     w0, 0xee0
     b92:	28 72 80    	mov.w     0xe44, w8
     b94:	09 01 54    	sub.w     w8, w9, w2
     b96:	cf 91 de    	asr.w     w2, #0xf, w3
     b98:	00 00 20    	mov.w     #0x0, w0
     b9a:	11 00 20    	mov.w     #0x1, w1
     b9c:	01 fd 07    	rcall     0x5a0 <___divsi3> <.libm>
     b9e:	10 77 88    	mov.w     w0, 0xee2
     ba0:	39 72 80    	mov.w     0xe46, w9
     ba2:	08 81 54    	sub.w     w9, w8, w2
     ba4:	cf 91 de    	asr.w     w2, #0xf, w3
     ba6:	00 00 20    	mov.w     #0x0, w0
     ba8:	11 00 20    	mov.w     #0x1, w1
     baa:	fa fc 07    	rcall     0x5a0 <___divsi3> <.libm>
     bac:	20 77 88    	mov.w     w0, 0xee4
     bae:	48 72 80    	mov.w     0xe48, w8
     bb0:	09 01 54    	sub.w     w8, w9, w2
     bb2:	cf 91 de    	asr.w     w2, #0xf, w3
     bb4:	00 00 20    	mov.w     #0x0, w0
     bb6:	11 00 20    	mov.w     #0x1, w1
     bb8:	f3 fc 07    	rcall     0x5a0 <___divsi3> <.libm>
     bba:	30 77 88    	mov.w     w0, 0xee6
     bbc:	59 72 80    	mov.w     0xe4a, w9
     bbe:	08 81 54    	sub.w     w9, w8, w2
     bc0:	cf 91 de    	asr.w     w2, #0xf, w3
     bc2:	00 00 20    	mov.w     #0x0, w0
     bc4:	11 00 20    	mov.w     #0x1, w1
     bc6:	ec fc 07    	rcall     0x5a0 <___divsi3> <.libm>
     bc8:	40 77 88    	mov.w     w0, 0xee8
     bca:	68 72 80    	mov.w     0xe4c, w8
     bcc:	09 01 54    	sub.w     w8, w9, w2
     bce:	cf 91 de    	asr.w     w2, #0xf, w3
     bd0:	00 00 20    	mov.w     #0x0, w0
     bd2:	11 00 20    	mov.w     #0x1, w1
     bd4:	e5 fc 07    	rcall     0x5a0 <___divsi3> <.libm>
     bd6:	50 77 88    	mov.w     w0, 0xeea
     bd8:	79 72 80    	mov.w     0xe4e, w9
     bda:	08 81 54    	sub.w     w9, w8, w2
     bdc:	cf 91 de    	asr.w     w2, #0xf, w3
     bde:	00 00 20    	mov.w     #0x0, w0
     be0:	11 00 20    	mov.w     #0x1, w1
     be2:	de fc 07    	rcall     0x5a0 <___divsi3> <.libm>
     be4:	60 77 88    	mov.w     w0, 0xeec
     be6:	88 72 80    	mov.w     0xe50, w8
     be8:	09 01 54    	sub.w     w8, w9, w2
     bea:	cf 91 de    	asr.w     w2, #0xf, w3
     bec:	00 00 20    	mov.w     #0x0, w0
     bee:	11 00 20    	mov.w     #0x1, w1
     bf0:	d7 fc 07    	rcall     0x5a0 <___divsi3> <.libm>
     bf2:	70 77 88    	mov.w     w0, 0xeee
     bf4:	99 72 80    	mov.w     0xe52, w9
     bf6:	08 81 54    	sub.w     w9, w8, w2
     bf8:	cf 91 de    	asr.w     w2, #0xf, w3
     bfa:	00 00 20    	mov.w     #0x0, w0
     bfc:	11 00 20    	mov.w     #0x1, w1
     bfe:	d0 fc 07    	rcall     0x5a0 <___divsi3> <.libm>
     c00:	80 77 88    	mov.w     w0, 0xef0
     c02:	a8 72 80    	mov.w     0xe54, w8
     c04:	09 01 54    	sub.w     w8, w9, w2
     c06:	cf 91 de    	asr.w     w2, #0xf, w3
     c08:	00 00 20    	mov.w     #0x0, w0
     c0a:	11 00 20    	mov.w     #0x1, w1
     c0c:	c9 fc 07    	rcall     0x5a0 <___divsi3> <.libm>
     c0e:	90 77 88    	mov.w     w0, 0xef2
     c10:	b9 72 80    	mov.w     0xe56, w9
     c12:	08 81 54    	sub.w     w9, w8, w2
     c14:	cf 91 de    	asr.w     w2, #0xf, w3
     c16:	00 00 20    	mov.w     #0x0, w0
     c18:	11 00 20    	mov.w     #0x1, w1
     c1a:	c2 fc 07    	rcall     0x5a0 <___divsi3> <.libm>
     c1c:	a0 77 88    	mov.w     w0, 0xef4
     c1e:	88 e5 20    	mov.w     #0xe58, w8
     c20:	18 81 14    	subr.w    w9, [w8], w2
     c22:	cf 91 de    	asr.w     w2, #0xf, w3
     c24:	00 00 20    	mov.w     #0x0, w0
     c26:	11 00 20    	mov.w     #0x1, w1
     c28:	bb fc 07    	rcall     0x5a0 <___divsi3> <.libm>
     c2a:	b0 77 88    	mov.w     w0, 0xef6
     c2c:	08 80 e8    	inc2.w    w8, w0
     c2e:	10 00 78    	mov.w     [w0], w0
     c30:	18 01 50    	sub.w     w0, [w8], w2
     c32:	cf 91 de    	asr.w     w2, #0xf, w3
     c34:	00 00 20    	mov.w     #0x0, w0
     c36:	11 00 20    	mov.w     #0x1, w1
     c38:	b3 fc 07    	rcall     0x5a0 <___divsi3> <.libm>
     c3a:	c0 77 88    	mov.w     w0, 0xef8
     c3c:	f1 c1 b3    	mov.b     #0x1f, w1
     c3e:	62 84 20    	mov.w     #0x846, w2
     c40:	01 49 78    	mov.b     w1, [w2]
     c42:	d0 77 88    	mov.w     w0, 0xefa
     c44:	4f 04 be    	mov.d     [--w15], w8
     c46:	00 00 06    	return    

00000c48 <_CalcFF>:
     c48:	05 41 80    	mov.w     0x820, w5
     c4a:	80 8f 52    	sub.w     w5, w0, [w15]
     c4c:	0a 00 34    	bra       LE, 0xc62 <.L74>
     c4e:	e1 40 80    	mov.w     0x81c, w1
     c50:	81 0f 50    	sub.w     w0, w1, [w15]
     c52:	0c 00 35    	bra       LT, 0xc6c <.L80>
     c54:	f6 40 80    	mov.w     0x81e, w6
     c56:	86 0f 50    	sub.w     w0, w6, [w15]
     c58:	0b 00 3d    	bra       GE, 0xc70 <.L77>
     c5a:	34 41 80    	mov.w     0x826, w4
     c5c:	23 41 80    	mov.w     0x824, w3
     c5e:	06 01 78    	mov.w     w6, w2
     c60:	92 02 37    	bra       0x1186 <_linterp> <.bb> <.bf> <.eb> <.ef> <.text>

00000c62 <.L74>:
     c62:	12 41 80    	mov.w     0x822, w2
     c64:	82 0f 50    	sub.w     w0, w2, [w15]
     c66:	09 00 35    	bra       LT, 0xc7a <.L81>
     c68:	50 41 80    	mov.w     0x82a, w0
     c6a:	00 00 06    	return    

00000c6c <.L80>:
     c6c:	20 41 80    	mov.w     0x824, w0
     c6e:	00 00 06    	return    

00000c70 <.L77>:
     c70:	44 41 80    	mov.w     0x828, w4
     c72:	33 41 80    	mov.w     0x826, w3
     c74:	05 01 78    	mov.w     w5, w2
     c76:	86 00 78    	mov.w     w6, w1
     c78:	86 02 37    	bra       0x1186 <_linterp> <.bb> <.bf> <.eb> <.ef> <.text>

00000c7a <.L81>:
     c7a:	54 41 80    	mov.w     0x82a, w4
     c7c:	43 41 80    	mov.w     0x828, w3
     c7e:	85 00 78    	mov.w     w5, w1
     c80:	82 02 37    	bra       0x1186 <_linterp> <.bb> <.bf> <.eb> <.ef> <.text>

00000c82 <_ProcessUartMsg>:
     c82:	e8 87 47    	add.w     w15, #0x8, w15
     c84:	88 9f be    	mov.d     w8, [w15++]
     c86:	8a 9f be    	mov.d     w10, [w15++]
     c88:	8c 9f be    	mov.d     w12, [w15++]
     c8a:	8e 1f 78    	mov.w     w14, [w15++]
     c8c:	e8 d6 20    	mov.w     #0xd6e, w8
     c8e:	88 05 e8    	inc.w     w8, w11
     c90:	4a d8 20    	mov.w     #0xd84, w10
     c92:	0a 06 e8    	inc.w     w10, w12
     c94:	0a 87 e8    	inc2.w    w10, w14
     c96:	f4 04 45    	add.w     w10, #0x14, w9
     c98:	88 86 e8    	inc2.w    w8, w13

00000c9a <.L47>:
     c9a:	00 81 eb    	setm.w    w2
     c9c:	80 81 eb    	setm.w    w3
     c9e:	20 92 20    	mov.w     #0x922, w0
     ca0:	2b 10 07    	rcall     0x2cf8 <.eb> <.ef> <_tn_sem_wait> <.bb> <.bf> <.text.tn_sem_wait>
     ca2:	c9 fb 07    	rcall     0x436 <_ExtractRcMessage> <.bb> <.bf> <.eb> <.ef>
     ca4:	00 04 e0    	cp0.b     w0
     ca6:	f9 ff 32    	bra       Z, 0xc9a <.L47>
     ca8:	18 41 78    	mov.b     [w8], w2
     caa:	80 89 20    	mov.w     #0x898, w0
     cac:	02 48 78    	mov.b     w2, [w0]
     cae:	ea 4f 51    	sub.b     w2, #0xa, [w15]
     cb0:	c5 01 32    	bra       Z, 0x103c <.L15> <.bb> <.eb>
     cb2:	43 00 3e    	bra       GTU, 0xd3a <.L27> <.eb>
     cb4:	e4 4f 51    	sub.b     w2, #0x4, [w15]
     cb6:	87 01 32    	bra       Z, 0xfc6 <.L9>
     cb8:	a2 00 3e    	bra       GTU, 0xdfe <.L28> <.eb>
     cba:	e1 4f 51    	sub.b     w2, #0x1, [w15]
     cbc:	13 02 32    	bra       Z, 0x10e4 <.L6> <.eb>
     cbe:	03 02 39    	bra       NC, 0x10c6 <.L5> <.bb>
     cc0:	e2 4f 51    	sub.b     w2, #0x2, [w15]
     cc2:	9c 01 32    	bra       Z, 0xffc <.L7> <.bb>
     cc4:	e3 4f 51    	sub.b     w2, #0x3, [w15]
     cc6:	07 00 32    	bra       Z, 0xcd6 <.L50> <.bb>

00000cc8 <.L4>:
     cc8:	00 ce b3    	mov.b     #0xe0, w0
     cca:	00 4d 78    	mov.b     w0, [w10]
     ccc:	02 4e 78    	mov.b     w2, [w12]
     cce:	20 c0 b3    	mov.b     #0x2, w0
     cd0:	80 4c 78    	mov.b     w0, [w9]
     cd2:	4c fb 07    	rcall     0x36c <_UartStartTx> <.bb> <.bf> <.eb> <.ef>
     cd4:	e2 ff 37    	bra       0xc9a <.L47>

00000cd6 <.L50>:
     cd6:	02 4d 78    	mov.b     w2, [w10]
     cd8:	86 c8 bf    	mov.b     0x886, WREG
     cda:	00 4e 78    	mov.b     w0, [w12]
     cdc:	71 88 20    	mov.w     #0x887, w1
     cde:	91 40 78    	mov.b     [w1], w1
     ce0:	01 4f 78    	mov.b     w1, [w14]
     ce2:	83 88 20    	mov.w     #0x888, w3
     ce4:	93 41 78    	mov.b     [w3], w3
     ce6:	72 d8 20    	mov.w     #0xd87, w2
     ce8:	03 49 78    	mov.b     w3, [w2]
     cea:	91 88 20    	mov.w     #0x889, w1
     cec:	91 40 78    	mov.b     [w1], w1
     cee:	02 00 e8    	inc.w     w2, w0
     cf0:	01 48 78    	mov.b     w1, [w0]
     cf2:	a3 88 20    	mov.w     #0x88a, w3
     cf4:	93 41 78    	mov.b     [w3], w3
     cf6:	02 81 e8    	inc2.w    w2, w2
     cf8:	03 49 78    	mov.b     w3, [w2]
     cfa:	b1 88 20    	mov.w     #0x88b, w1
     cfc:	91 40 78    	mov.b     [w1], w1
     cfe:	00 80 e8    	inc2.w    w0, w0
     d00:	01 48 78    	mov.b     w1, [w0]
     d02:	a3 81 20    	mov.w     #0x81a, w3
     d04:	93 41 78    	mov.b     [w3], w3
     d06:	02 81 e8    	inc2.w    w2, w2
     d08:	03 49 78    	mov.b     w3, [w2]
     d0a:	b1 81 20    	mov.w     #0x81b, w1
     d0c:	91 40 78    	mov.b     [w1], w1
     d0e:	00 80 e8    	inc2.w    w0, w0
     d10:	01 48 78    	mov.b     w1, [w0]
     d12:	e3 80 20    	mov.w     #0x80e, w3
     d14:	93 41 78    	mov.b     [w3], w3
     d16:	02 81 e8    	inc2.w    w2, w2
     d18:	03 49 78    	mov.b     w3, [w2]
     d1a:	f1 80 20    	mov.w     #0x80f, w1
     d1c:	91 40 78    	mov.b     [w1], w1
     d1e:	00 80 e8    	inc2.w    w0, w0
     d20:	01 48 78    	mov.b     w1, [w0]
     d22:	03 81 20    	mov.w     #0x810, w3
     d24:	93 41 78    	mov.b     [w3], w3
     d26:	02 81 e8    	inc2.w    w2, w2
     d28:	03 49 78    	mov.b     w3, [w2]
     d2a:	11 81 20    	mov.w     #0x811, w1
     d2c:	91 40 78    	mov.b     [w1], w1
     d2e:	00 80 e8    	inc2.w    w0, w0
     d30:	01 48 78    	mov.b     w1, [w0]
     d32:	d0 c0 b3    	mov.b     #0xd, w0
     d34:	80 4c 78    	mov.b     w0, [w9]
     d36:	1a fb 07    	rcall     0x36c <_UartStartTx> <.bb> <.bf> <.eb> <.ef>
     d38:	b0 ff 37    	bra       0xc9a <.L47>

00000d3a <.L27>:
     d3a:	f0 4f 51    	sub.b     w2, #0x10, [w15]
     d3c:	a4 01 32    	bra       Z, 0x1086 <.L21>
     d3e:	44 00 3e    	bra       GTU, 0xdc8 <.L30> <.eb>
     d40:	ed 4f 51    	sub.b     w2, #0xd, [w15]
     d42:	fc 00 32    	bra       Z, 0xf3c <.L18>
     d44:	b6 00 3e    	bra       GTU, 0xeb2 <.L31>
     d46:	eb 4f 51    	sub.b     w2, #0xb, [w15]
     d48:	92 01 32    	bra       Z, 0x106e <.L16> <.eb>
     d4a:	ec 4f 51    	sub.b     w2, #0xc, [w15]
     d4c:	bd ff 3a    	bra       NZ, 0xcc8 <.L4>

00000d4e <.bb>:
     d4e:	1b 40 78    	mov.b     [w11], w0
     d50:	1c e8 b7    	mov.b     WREG, 0x81c
     d52:	9d 41 78    	mov.b     [w13], w3
     d54:	d1 81 20    	mov.w     #0x81d, w1
     d56:	83 48 78    	mov.b     w3, [w1]
     d58:	10 d7 20    	mov.w     #0xd71, w0
     d5a:	90 40 78    	mov.b     [w0], w1
     d5c:	e0 81 20    	mov.w     #0x81e, w0
     d5e:	01 48 78    	mov.b     w1, [w0]
     d60:	23 d7 20    	mov.w     #0xd72, w3
     d62:	13 40 78    	mov.b     [w3], w0
     d64:	1f e8 b7    	mov.b     WREG, 0x81f
     d66:	31 d7 20    	mov.w     #0xd73, w1
     d68:	91 41 78    	mov.b     [w1], w3
     d6a:	01 82 20    	mov.w     #0x820, w1
     d6c:	83 48 78    	mov.b     w3, [w1]
     d6e:	40 d7 20    	mov.w     #0xd74, w0
     d70:	90 40 78    	mov.b     [w0], w1
     d72:	10 82 20    	mov.w     #0x821, w0
     d74:	01 48 78    	mov.b     w1, [w0]
     d76:	53 d7 20    	mov.w     #0xd75, w3
     d78:	13 40 78    	mov.b     [w3], w0
     d7a:	22 e8 b7    	mov.b     WREG, 0x822
     d7c:	61 d7 20    	mov.w     #0xd76, w1
     d7e:	91 41 78    	mov.b     [w1], w3
     d80:	31 82 20    	mov.w     #0x823, w1
     d82:	83 48 78    	mov.b     w3, [w1]
     d84:	70 d7 20    	mov.w     #0xd77, w0
     d86:	90 40 78    	mov.b     [w0], w1
     d88:	40 82 20    	mov.w     #0x824, w0
     d8a:	01 48 78    	mov.b     w1, [w0]
     d8c:	83 d7 20    	mov.w     #0xd78, w3
     d8e:	13 40 78    	mov.b     [w3], w0
     d90:	25 e8 b7    	mov.b     WREG, 0x825
     d92:	91 d7 20    	mov.w     #0xd79, w1
     d94:	91 41 78    	mov.b     [w1], w3
     d96:	61 82 20    	mov.w     #0x826, w1
     d98:	83 48 78    	mov.b     w3, [w1]
     d9a:	a0 d7 20    	mov.w     #0xd7a, w0
     d9c:	90 40 78    	mov.b     [w0], w1
     d9e:	70 82 20    	mov.w     #0x827, w0
     da0:	01 48 78    	mov.b     w1, [w0]
     da2:	b3 d7 20    	mov.w     #0xd7b, w3
     da4:	13 40 78    	mov.b     [w3], w0
     da6:	28 e8 b7    	mov.b     WREG, 0x828
     da8:	c1 d7 20    	mov.w     #0xd7c, w1
     daa:	91 41 78    	mov.b     [w1], w3
     dac:	91 82 20    	mov.w     #0x829, w1
     dae:	83 48 78    	mov.b     w3, [w1]
     db0:	d0 d7 20    	mov.w     #0xd7d, w0
     db2:	90 40 78    	mov.b     [w0], w1
     db4:	a0 82 20    	mov.w     #0x82a, w0
     db6:	01 48 78    	mov.b     w1, [w0]
     db8:	e3 d7 20    	mov.w     #0xd7e, w3
     dba:	13 40 78    	mov.b     [w3], w0
     dbc:	2b e8 b7    	mov.b     WREG, 0x82b
     dbe:	02 4d 78    	mov.b     w2, [w10]
     dc0:	10 c0 b3    	mov.b     #0x1, w0
     dc2:	80 4c 78    	mov.b     w0, [w9]
     dc4:	d3 fa 07    	rcall     0x36c <_UartStartTx> <.bb> <.bf> <.eb> <.ef>
     dc6:	69 ff 37    	bra       0xc9a <.L47>

00000dc8 <.L30>:
     dc8:	ef 4f 41    	add.b     w2, #0xf, [w15]
     dca:	e5 00 32    	bra       Z, 0xf96 <.L24> <.eb>
     dcc:	4d 00 3e    	bra       GTU, 0xe68 <.L32> <.eb>
     dce:	f1 4f 51    	sub.b     w2, #0x11, [w15]
     dd0:	f2 00 32    	bra       Z, 0xfb6 <.L22> <.eb>
     dd2:	f0 4f 41    	add.b     w2, #0x10, [w15]
     dd4:	79 ff 3a    	bra       NZ, 0xcc8 <.L4>
     dd6:	31 c0 b3    	mov.b     #0x3, w1
     dd8:	20 d8 20    	mov.w     #0xd82, w0
     dda:	90 cf 10    	subr.b    w1, [w0], [w15]
     ddc:	06 00 32    	bra       Z, 0xdea <.L51> <.bb>

00000dde <.L42>:
     dde:	10 ce b3    	mov.b     #0xe1, w0
     de0:	00 4d 78    	mov.b     w0, [w10]
     de2:	10 c0 b3    	mov.b     #0x1, w0
     de4:	80 4c 78    	mov.b     w0, [w9]
     de6:	c2 fa 07    	rcall     0x36c <_UartStartTx> <.bb> <.bf> <.eb> <.ef>
     de8:	58 ff 37    	bra       0xc9a <.L47>

00000dea <.L51>:
     dea:	9b 80 fb    	ze        [w11], w1
     dec:	c8 08 dd    	sl.w      w1, #0x8, w1
     dee:	1d 80 fb    	ze        [w13], w0
     df0:	02 cf b3    	mov.b     #0xf0, w2
     df2:	02 4d 78    	mov.b     w2, [w10]
     df4:	61 4e 78    	mov.b     [w1+w0], [w12]
     df6:	20 c0 b3    	mov.b     #0x2, w0
     df8:	80 4c 78    	mov.b     w0, [w9]
     dfa:	b8 fa 07    	rcall     0x36c <_UartStartTx> <.bb> <.bf> <.eb> <.ef>
     dfc:	4e ff 37    	bra       0xc9a <.L47>

00000dfe <.L28>:
     dfe:	e7 4f 51    	sub.b     w2, #0x7, [w15]
     e00:	85 00 32    	bra       Z, 0xf0c <.L12> <.bb> <.eb>
     e02:	14 00 3e    	bra       GTU, 0xe2c <.L29> <.eb>
     e04:	e5 4f 51    	sub.b     w2, #0x5, [w15]
     e06:	71 00 32    	bra       Z, 0xeea <.L10> <.bb> <.eb>
     e08:	e6 4f 51    	sub.b     w2, #0x6, [w15]
     e0a:	5e ff 3a    	bra       NZ, 0xcc8 <.L4>

00000e0c <.bb>:
     e0c:	02 4d 78    	mov.b     w2, [w10]
     e0e:	1b 40 78    	mov.b     [w11], w0
     e10:	c0 ef 9f    	mov.b     w0, [w15-20]
     e12:	9d 40 78    	mov.b     [w13], w1
     e14:	d1 ef 9f    	mov.b     w1, [w15-19]
     e16:	6f b0 97    	mov.w     [w15-20], w0
     e18:	d5 fb 07    	rcall     0x5c4 <_CalcTByV> <.bb> <.bf> <.text>
     e1a:	f0 b7 9f    	mov.w     w0, [w15-18]
     e1c:	6f e9 97    	mov.b     [w15-18], w2
     e1e:	02 4e 78    	mov.b     w2, [w12]
     e20:	ff e9 97    	mov.b     [w15-17], w3
     e22:	03 4f 78    	mov.b     w3, [w14]
     e24:	30 c0 b3    	mov.b     #0x3, w0
     e26:	80 4c 78    	mov.b     w0, [w9]
     e28:	a1 fa 07    	rcall     0x36c <_UartStartTx> <.bb> <.bf> <.eb> <.ef>
     e2a:	37 ff 37    	bra       0xc9a <.L47>

00000e2c <.L29>:
     e2c:	e8 4f 51    	sub.b     w2, #0x8, [w15]
     e2e:	91 00 32    	bra       Z, 0xf52 <.L13> <.bb>
     e30:	e9 4f 51    	sub.b     w2, #0x9, [w15]
     e32:	4a ff 3a    	bra       NZ, 0xcc8 <.L4>

00000e34 <.bb>:
     e34:	1b 40 78    	mov.b     [w11], w0
     e36:	2e e8 b7    	mov.b     WREG, 0x82e
     e38:	9d 41 78    	mov.b     [w13], w3
     e3a:	f1 82 20    	mov.w     #0x82f, w1
     e3c:	83 48 78    	mov.b     w3, [w1]
     e3e:	10 d7 20    	mov.w     #0xd71, w0
     e40:	90 40 78    	mov.b     [w0], w1
     e42:	00 83 20    	mov.w     #0x830, w0
     e44:	01 48 78    	mov.b     w1, [w0]
     e46:	23 d7 20    	mov.w     #0xd72, w3
     e48:	13 40 78    	mov.b     [w3], w0
     e4a:	31 e8 b7    	mov.b     WREG, 0x831
     e4c:	31 d7 20    	mov.w     #0xd73, w1
     e4e:	91 41 78    	mov.b     [w1], w3
     e50:	21 83 20    	mov.w     #0x832, w1
     e52:	83 48 78    	mov.b     w3, [w1]
     e54:	40 d7 20    	mov.w     #0xd74, w0
     e56:	90 40 78    	mov.b     [w0], w1
     e58:	30 83 20    	mov.w     #0x833, w0
     e5a:	01 48 78    	mov.b     w1, [w0]
     e5c:	3d 68 ef    	clr.b     0x83d
     e5e:	02 4d 78    	mov.b     w2, [w10]
     e60:	10 c0 b3    	mov.b     #0x1, w0
     e62:	80 4c 78    	mov.b     w0, [w9]
     e64:	83 fa 07    	rcall     0x36c <_UartStartTx> <.bb> <.bf> <.eb> <.ef>
     e66:	19 ff 37    	bra       0xc9a <.L47>

00000e68 <.L32>:
     e68:	e3 4f 41    	add.b     w2, #0x3, [w15]
     e6a:	5f 00 32    	bra       Z, 0xf2a <.L25> <.eb>
     e6c:	e2 4f 41    	add.b     w2, #0x2, [w15]
     e6e:	2c ff 3a    	bra       NZ, 0xcc8 <.L4>
     e70:	02 4d 78    	mov.b     w2, [w10]
     e72:	02 c8 bf    	mov.b     0x802, WREG
     e74:	03 48 b6    	and.b     0x803, WREG
     e76:	00 80 fb    	ze        w0, w0
     e78:	00 00 ea    	neg.w     w0, w0
     e7a:	4f 00 de    	lsr.w     w0, #0xf, w0
     e7c:	00 4e 78    	mov.b     w0, [w12]
     e7e:	3d 48 d4    	sl.b      0x83d, WREG
     e80:	80 40 78    	mov.b     w0, w1
     e82:	3e c8 bf    	mov.b     0x83e, WREG
     e84:	00 80 fb    	ze        w0, w0
     e86:	42 00 dd    	sl.w      w0, #0x2, w0
     e88:	c2 83 20    	mov.w     #0x83c, w2
     e8a:	92 c0 70    	ior.b     w1, [w2], w1
     e8c:	00 cf 70    	ior.b     w1, w0, [w14]
     e8e:	70 48 d4    	sl.b      0x870, WREG
     e90:	80 40 78    	mov.b     w0, w1
     e92:	72 c8 bf    	mov.b     0x872, WREG
     e94:	00 80 fb    	ze        w0, w0
     e96:	42 00 dd    	sl.w      w0, #0x2, w0
     e98:	80 c0 70    	ior.b     w1, w0, w1
     e9a:	e2 86 20    	mov.w     #0x86e, w2
     e9c:	92 c0 70    	ior.b     w1, [w2], w1
     e9e:	00 40 eb    	clr.b     w0
     ea0:	6c 48 e2    	cp0.b     0x86c
     ea2:	01 00 32    	bra       Z, 0xea6 <.L43>
     ea4:	80 c0 b3    	mov.b     #0x8, w0

00000ea6 <.L43>:
     ea6:	73 d8 20    	mov.w     #0xd87, w3
     ea8:	80 c9 70    	ior.b     w1, w0, [w3]
     eaa:	40 c0 b3    	mov.b     #0x4, w0
     eac:	80 4c 78    	mov.b     w0, [w9]
     eae:	5e fa 07    	rcall     0x36c <_UartStartTx> <.bb> <.bf> <.eb> <.ef>
     eb0:	f4 fe 37    	bra       0xc9a <.L47>

00000eb2 <.L31>:
     eb2:	ee 4f 51    	sub.b     w2, #0xe, [w15]
     eb4:	0b 00 32    	bra       Z, 0xecc <.L19> <.bb>
     eb6:	ef 4f 51    	sub.b     w2, #0xf, [w15]
     eb8:	07 ff 3a    	bra       NZ, 0xcc8 <.L4>
     eba:	1b 04 e0    	cp0.b     [w11]
     ebc:	33 01 3a    	bra       NZ, 0x1124 <.L38>
     ebe:	04 68 ef    	clr.b     0x804
     ec0:	f0 c0 b3    	mov.b     #0xf, w0
     ec2:	00 4d 78    	mov.b     w0, [w10]
     ec4:	10 c0 b3    	mov.b     #0x1, w0
     ec6:	80 4c 78    	mov.b     w0, [w9]
     ec8:	51 fa 07    	rcall     0x36c <_UartStartTx> <.bb> <.bf> <.eb> <.ef>
     eca:	e7 fe 37    	bra       0xc9a <.L47>

00000ecc <.L19>:
     ecc:	9b 40 78    	mov.b     [w11], w1
     ece:	01 80 fb    	ze        w1, w0
     ed0:	00 00 40    	add.w     w0, w0, w0
     ed2:	43 f2 20    	mov.w     #0xf24, w3
     ed4:	00 80 41    	add.w     w3, w0, w0
     ed6:	02 4d 78    	mov.b     w2, [w10]
     ed8:	01 4e 78    	mov.b     w1, [w12]
     eda:	10 4f 78    	mov.b     [w0], [w14]
     edc:	10 40 90    	mov.b     [w0+1], w0
     ede:	71 d8 20    	mov.w     #0xd87, w1
     ee0:	80 48 78    	mov.b     w0, [w1]
     ee2:	40 c0 b3    	mov.b     #0x4, w0
     ee4:	80 4c 78    	mov.b     w0, [w9]
     ee6:	42 fa 07    	rcall     0x36c <_UartStartTx> <.bb> <.bf> <.eb> <.ef>
     ee8:	d8 fe 37    	bra       0xc9a <.L47>

00000eea <.L10>:
     eea:	c3 e5 20    	mov.w     #0xe5c, w3
     eec:	9b 49 78    	mov.b     [w11], [w3]
     eee:	1d 40 78    	mov.b     [w13], w0
     ef0:	90 41 98    	mov.b     w0, [w3+1]
     ef2:	11 d7 20    	mov.w     #0xd71, w1
     ef4:	91 41 78    	mov.b     [w1], w3
     ef6:	11 89 20    	mov.w     #0x891, w1
     ef8:	83 48 78    	mov.b     w3, [w1]
     efa:	82 bf 9f    	mov.w     w2, [w15-16]
     efc:	ad fd 07    	rcall     0xa58 <_FillTableT> <.bb> <.bf> <.eb> <.eb> <.ef>
     efe:	10 c0 b3    	mov.b     #0x1, w0
     f00:	03 e8 b7    	mov.b     WREG, 0x803
     f02:	0f b9 97    	mov.w     [w15-16], w2
     f04:	02 4d 78    	mov.b     w2, [w10]
     f06:	80 4c 78    	mov.b     w0, [w9]
     f08:	31 fa 07    	rcall     0x36c <_UartStartTx> <.bb> <.bf> <.eb> <.ef>
     f0a:	c7 fe 37    	bra       0xc9a <.L47>

00000f0c <.L12>:
     f0c:	9b 40 78    	mov.b     [w11], w1
     f0e:	01 80 fb    	ze        w1, w0
     f10:	00 00 40    	add.w     w0, w0, w0
     f12:	03 86 20    	mov.w     #0x860, w3

00000f14 <.bb>:
     f14:	00 80 41    	add.w     w3, w0, w0
     f16:	02 4d 78    	mov.b     w2, [w10]
     f18:	01 4e 78    	mov.b     w1, [w12]
     f1a:	10 4f 78    	mov.b     [w0], [w14]
     f1c:	10 40 90    	mov.b     [w0+1], w0
     f1e:	71 d8 20    	mov.w     #0xd87, w1
     f20:	80 48 78    	mov.b     w0, [w1]
     f22:	40 c0 b3    	mov.b     #0x4, w0
     f24:	80 4c 78    	mov.b     w0, [w9]
     f26:	22 fa 07    	rcall     0x36c <_UartStartTx> <.bb> <.bf> <.eb> <.ef>
     f28:	b8 fe 37    	bra       0xc9a <.L47>

00000f2a <.L25>:
     f2a:	22 c0 b3    	mov.b     #0x2, w2
     f2c:	21 d8 20    	mov.w     #0xd82, w1
     f2e:	91 4f 11    	subr.b    w2, [w1], [w15]
     f30:	56 ff 3a    	bra       NZ, 0xdde <.L42>
     f32:	50 c5 b3    	mov.b     #0x55, w0
     f34:	9b 4f 10    	subr.b    w0, [w11], [w15]
     f36:	53 ff 3a    	bra       NZ, 0xdde <.L42>
     f38:	00 00 fe    	reset     
     f3a:	af fe 37    	bra       0xc9a <.L47>

00000f3c <.L18>:
     f3c:	02 4d 78    	mov.b     w2, [w10]
     f3e:	61 86 20    	mov.w     #0x866, w1
     f40:	91 40 78    	mov.b     [w1], w1
     f42:	01 4e 78    	mov.b     w1, [w12]
     f44:	72 86 20    	mov.w     #0x867, w2
     f46:	12 41 78    	mov.b     [w2], w2
     f48:	02 4f 78    	mov.b     w2, [w14]
     f4a:	30 c0 b3    	mov.b     #0x3, w0
     f4c:	80 4c 78    	mov.b     w0, [w9]
     f4e:	0e fa 07    	rcall     0x36c <_UartStartTx> <.bb> <.bf> <.eb> <.ef>
     f50:	a4 fe 37    	bra       0xc9a <.L47>

00000f52 <.L13>:
     f52:	02 4d 78    	mov.b     w2, [w10]
     f54:	60 c8 bf    	mov.b     0x860, WREG
     f56:	00 4e 78    	mov.b     w0, [w12]
     f58:	11 86 20    	mov.w     #0x861, w1
     f5a:	91 40 78    	mov.b     [w1], w1
     f5c:	01 4f 78    	mov.b     w1, [w14]
     f5e:	23 86 20    	mov.w     #0x862, w3
     f60:	93 41 78    	mov.b     [w3], w3
     f62:	72 d8 20    	mov.w     #0xd87, w2
     f64:	03 49 78    	mov.b     w3, [w2]
     f66:	31 86 20    	mov.w     #0x863, w1
     f68:	91 40 78    	mov.b     [w1], w1
     f6a:	02 00 e8    	inc.w     w2, w0
     f6c:	01 48 78    	mov.b     w1, [w0]
     f6e:	43 86 20    	mov.w     #0x864, w3
     f70:	93 41 78    	mov.b     [w3], w3
     f72:	02 81 e8    	inc2.w    w2, w2
     f74:	03 49 78    	mov.b     w3, [w2]
     f76:	51 86 20    	mov.w     #0x865, w1
     f78:	91 40 78    	mov.b     [w1], w1
     f7a:	00 80 e8    	inc2.w    w0, w0
     f7c:	01 48 78    	mov.b     w1, [w0]
     f7e:	03 80 20    	mov.w     #0x800, w3
     f80:	93 41 78    	mov.b     [w3], w3
     f82:	02 81 e8    	inc2.w    w2, w2
     f84:	03 49 78    	mov.b     w3, [w2]
     f86:	11 80 20    	mov.w     #0x801, w1
     f88:	91 40 78    	mov.b     [w1], w1
     f8a:	00 80 e8    	inc2.w    w0, w0
     f8c:	01 48 78    	mov.b     w1, [w0]
     f8e:	90 c0 b3    	mov.b     #0x9, w0
     f90:	80 4c 78    	mov.b     w0, [w9]
     f92:	ec f9 07    	rcall     0x36c <_UartStartTx> <.bb> <.bf> <.eb> <.ef>
     f94:	82 fe 37    	bra       0xc9a <.L47>

00000f96 <.L24>:
     f96:	40 c0 b3    	mov.b     #0x4, w0
     f98:	23 d8 20    	mov.w     #0xd82, w3
     f9a:	93 4f 10    	subr.b    w0, [w3], [w15]
     f9c:	20 ff 3a    	bra       NZ, 0xdde <.L42>

00000f9e <.bb>:
     f9e:	9b 80 fb    	ze        [w11], w1
     fa0:	c8 08 dd    	sl.w      w1, #0x8, w1
     fa2:	1d 80 fb    	ze        [w13], w0
     fa4:	f1 81 51    	sub.w     w3, #0x11, w3
     fa6:	93 70 78    	mov.b     [w3], [w1+w0]
     fa8:	02 4d 78    	mov.b     w2, [w10]
     faa:	00 ca b3    	mov.b     #0xa0, w0
     fac:	00 4e 78    	mov.b     w0, [w12]
     fae:	20 c0 b3    	mov.b     #0x2, w0
     fb0:	80 4c 78    	mov.b     w0, [w9]
     fb2:	dc f9 07    	rcall     0x36c <_UartStartTx> <.bb> <.bf> <.eb> <.ef>
     fb4:	72 fe 37    	bra       0xc9a <.L47>

00000fb6 <.L22>:
     fb6:	6e 68 ef    	clr.b     0x86e
     fb8:	70 68 ef    	clr.b     0x870
     fba:	72 68 ef    	clr.b     0x872
     fbc:	02 4d 78    	mov.b     w2, [w10]
     fbe:	10 c0 b3    	mov.b     #0x1, w0
     fc0:	80 4c 78    	mov.b     w0, [w9]
     fc2:	d4 f9 07    	rcall     0x36c <_UartStartTx> <.bb> <.bf> <.eb> <.ef>
     fc4:	6a fe 37    	bra       0xc9a <.L47>

00000fc6 <.L9>:
     fc6:	9b 41 78    	mov.b     [w11], w3
     fc8:	03 80 fb    	ze        w3, w0
     fca:	44 00 dd    	sl.w      w0, #0x4, w0
     fcc:	c2 e1 20    	mov.w     #0xe1c, w2
     fce:	00 00 41    	add.w     w2, w0, w0
     fd0:	02 01 20    	mov.w     #0x10, w2
     fd2:	01 d7 20    	mov.w     #0xd70, w1
     fd4:	83 bf 9f    	mov.w     w3, [w15-16]
     fd6:	b4 fa 07    	rcall     0x540 <_memmove> <.libc>
     fd8:	8f b9 97    	mov.w     [w15-16], w3
     fda:	e3 cf 51    	sub.b     w3, #0x3, [w15]
     fdc:	06 00 32    	bra       Z, 0xfea <.L52>
     fde:	40 c0 b3    	mov.b     #0x4, w0
     fe0:	00 4d 78    	mov.b     w0, [w10]
     fe2:	10 c0 b3    	mov.b     #0x1, w0
     fe4:	80 4c 78    	mov.b     w0, [w9]
     fe6:	c2 f9 07    	rcall     0x36c <_UartStartTx> <.bb> <.bf> <.eb> <.ef>
     fe8:	58 fe 37    	bra       0xc9a <.L47>

00000fea <.L52>:
     fea:	4c fd 07    	rcall     0xa84 <_FillTableInvDV> <.bb> <.bf> <.eb> <.ef>
     fec:	10 c0 b3    	mov.b     #0x1, w0
     fee:	02 e8 b7    	mov.b     WREG, 0x802
     ff0:	40 c0 b3    	mov.b     #0x4, w0
     ff2:	00 4d 78    	mov.b     w0, [w10]
     ff4:	10 c0 b3    	mov.b     #0x1, w0
     ff6:	80 4c 78    	mov.b     w0, [w9]
     ff8:	b9 f9 07    	rcall     0x36c <_UartStartTx> <.bb> <.bf> <.eb> <.ef>
     ffa:	4f fe 37    	bra       0xc9a <.L47>

00000ffc <.L7>:
     ffc:	1b 40 78    	mov.b     [w11], w0
     ffe:	7e e8 b7    	mov.b     WREG, 0x87e
    1000:	9d 41 78    	mov.b     [w13], w3
    1002:	f1 87 20    	mov.w     #0x87f, w1
    1004:	83 48 78    	mov.b     w3, [w1]
    1006:	10 d7 20    	mov.w     #0xd71, w0
    1008:	90 40 78    	mov.b     [w0], w1
    100a:	00 88 20    	mov.w     #0x880, w0
    100c:	01 48 78    	mov.b     w1, [w0]
    100e:	23 d7 20    	mov.w     #0xd72, w3
    1010:	13 40 78    	mov.b     [w3], w0
    1012:	81 e8 b7    	mov.b     WREG, 0x881
    1014:	31 d7 20    	mov.w     #0xd73, w1
    1016:	91 41 78    	mov.b     [w1], w3
    1018:	21 88 20    	mov.w     #0x882, w1
    101a:	83 48 78    	mov.b     w3, [w1]
    101c:	40 d7 20    	mov.w     #0xd74, w0
    101e:	90 40 78    	mov.b     [w0], w1
    1020:	30 88 20    	mov.w     #0x883, w0
    1022:	01 48 78    	mov.b     w1, [w0]
    1024:	53 d7 20    	mov.w     #0xd75, w3
    1026:	13 40 78    	mov.b     [w3], w0
    1028:	84 e8 b7    	mov.b     WREG, 0x884
    102a:	61 d7 20    	mov.w     #0xd76, w1
    102c:	91 41 78    	mov.b     [w1], w3
    102e:	51 88 20    	mov.w     #0x885, w1
    1030:	83 48 78    	mov.b     w3, [w1]
    1032:	02 4d 78    	mov.b     w2, [w10]
    1034:	10 c0 b3    	mov.b     #0x1, w0
    1036:	80 4c 78    	mov.b     w0, [w9]
    1038:	99 f9 07    	rcall     0x36c <_UartStartTx> <.bb> <.bf> <.eb> <.ef>
    103a:	2f fe 37    	bra       0xc9a <.L47>

0000103c <.L15>:
    103c:	1b 40 78    	mov.b     [w11], w0
    103e:	90 e8 b7    	mov.b     WREG, 0x890
    1040:	9d 41 78    	mov.b     [w13], w3
    1042:	c1 88 20    	mov.w     #0x88c, w1
    1044:	83 48 78    	mov.b     w3, [w1]
    1046:	10 d7 20    	mov.w     #0xd71, w0
    1048:	90 40 78    	mov.b     [w0], w1
    104a:	20 81 20    	mov.w     #0x812, w0
    104c:	01 48 78    	mov.b     w1, [w0]
    104e:	23 d7 20    	mov.w     #0xd72, w3
    1050:	13 40 78    	mov.b     [w3], w0
    1052:	13 e8 b7    	mov.b     WREG, 0x813
    1054:	31 d7 20    	mov.w     #0xd73, w1
    1056:	91 41 78    	mov.b     [w1], w3
    1058:	61 81 20    	mov.w     #0x816, w1
    105a:	83 48 78    	mov.b     w3, [w1]
    105c:	40 d7 20    	mov.w     #0xd74, w0
    105e:	90 40 78    	mov.b     [w0], w1
    1060:	70 81 20    	mov.w     #0x817, w0
    1062:	01 48 78    	mov.b     w1, [w0]
    1064:	02 4d 78    	mov.b     w2, [w10]
    1066:	10 c0 b3    	mov.b     #0x1, w0
    1068:	80 4c 78    	mov.b     w0, [w9]
    106a:	80 f9 07    	rcall     0x36c <_UartStartTx> <.bb> <.bf> <.eb> <.ef>
    106c:	16 fe 37    	bra       0xc9a <.L47>

0000106e <.L16>:
    106e:	1b 40 78    	mov.b     [w11], w0
    1070:	00 04 e0    	cp0.b     w0
    1072:	49 00 3a    	bra       NZ, 0x1106 <.L35>
    1074:	10 c0 b3    	mov.b     #0x1, w0
    1076:	3c e8 b7    	mov.b     WREG, 0x83c

00001078 <.L36>:
    1078:	b0 c0 b3    	mov.b     #0xb, w0
    107a:	00 4d 78    	mov.b     w0, [w10]
    107c:	10 c0 b3    	mov.b     #0x1, w0
    107e:	80 4c 78    	mov.b     w0, [w9]
    1080:	75 f9 07    	rcall     0x36c <_UartStartTx> <.bb> <.bf> <.eb> <.ef>
    1082:	04 68 ef    	clr.b     0x804
    1084:	0a fe 37    	bra       0xc9a <.L47>

00001086 <.L21>:
    1086:	1b 40 78    	mov.b     [w11], w0
    1088:	74 e8 b7    	mov.b     WREG, 0x874
    108a:	9d 41 78    	mov.b     [w13], w3
    108c:	51 87 20    	mov.w     #0x875, w1
    108e:	83 48 78    	mov.b     w3, [w1]
    1090:	10 d7 20    	mov.w     #0xd71, w0
    1092:	90 40 78    	mov.b     [w0], w1
    1094:	60 87 20    	mov.w     #0x876, w0
    1096:	01 48 78    	mov.b     w1, [w0]
    1098:	23 d7 20    	mov.w     #0xd72, w3
    109a:	13 40 78    	mov.b     [w3], w0
    109c:	77 e8 b7    	mov.b     WREG, 0x877
    109e:	31 d7 20    	mov.w     #0xd73, w1
    10a0:	91 41 78    	mov.b     [w1], w3
    10a2:	81 87 20    	mov.w     #0x878, w1
    10a4:	83 48 78    	mov.b     w3, [w1]
    10a6:	40 d7 20    	mov.w     #0xd74, w0
    10a8:	90 40 78    	mov.b     [w0], w1
    10aa:	90 87 20    	mov.w     #0x879, w0
    10ac:	01 48 78    	mov.b     w1, [w0]
    10ae:	53 d7 20    	mov.w     #0xd75, w3
    10b0:	13 40 78    	mov.b     [w3], w0
    10b2:	7a e8 b7    	mov.b     WREG, 0x87a
    10b4:	61 d7 20    	mov.w     #0xd76, w1
    10b6:	91 41 78    	mov.b     [w1], w3
    10b8:	b1 87 20    	mov.w     #0x87b, w1
    10ba:	83 48 78    	mov.b     w3, [w1]
    10bc:	02 4d 78    	mov.b     w2, [w10]
    10be:	10 c0 b3    	mov.b     #0x1, w0
    10c0:	80 4c 78    	mov.b     w0, [w9]
    10c2:	54 f9 07    	rcall     0x36c <_UartStartTx> <.bb> <.bf> <.eb> <.ef>
    10c4:	ea fd 37    	bra       0xc9a <.L47>

000010c6 <.L5>:
    10c6:	9b 40 78    	mov.b     [w11], w1
    10c8:	01 80 fb    	ze        w1, w0
    10ca:	00 00 40    	add.w     w0, w0, w0
    10cc:	42 f4 20    	mov.w     #0xf44, w2
    10ce:	00 00 41    	add.w     w2, w0, w0
    10d0:	00 4d eb    	clr.b     [w10]
    10d2:	01 4e 78    	mov.b     w1, [w12]
    10d4:	10 4f 78    	mov.b     [w0], [w14]
    10d6:	10 40 90    	mov.b     [w0+1], w0
    10d8:	73 d8 20    	mov.w     #0xd87, w3
    10da:	80 49 78    	mov.b     w0, [w3]
    10dc:	40 c0 b3    	mov.b     #0x4, w0
    10de:	80 4c 78    	mov.b     w0, [w9]
    10e0:	45 f9 07    	rcall     0x36c <_UartStartTx> <.bb> <.bf> <.eb> <.ef>
    10e2:	db fd 37    	bra       0xc9a <.L47>

000010e4 <.L6>:
    10e4:	1b 40 78    	mov.b     [w11], w0
    10e6:	80 80 fb    	ze        w0, w1
    10e8:	81 80 40    	add.w     w1, w1, w1
    10ea:	43 f2 20    	mov.w     #0xf24, w3
    10ec:	81 80 41    	add.w     w3, w1, w1
    10ee:	9d 48 78    	mov.b     [w13], [w1]
    10f0:	13 d7 20    	mov.w     #0xd71, w3
    10f2:	93 41 78    	mov.b     [w3], w3
    10f4:	93 40 98    	mov.b     w3, [w1+1]
    10f6:	91 00 78    	mov.w     [w1], w1
    10f8:	82 bf 9f    	mov.w     w2, [w15-16]
    10fa:	a2 09 07    	rcall     0x2440 <.eb> <.ef> <_LoadDac> <.bb> <.bf> <.text>
    10fc:	0f b9 97    	mov.w     [w15-16], w2
    10fe:	02 4d 78    	mov.b     w2, [w10]
    1100:	82 4c 78    	mov.b     w2, [w9]
    1102:	34 f9 07    	rcall     0x36c <_UartStartTx> <.bb> <.bf> <.eb> <.ef>
    1104:	ca fd 37    	bra       0xc9a <.L47>

00001106 <.L35>:
    1106:	e1 4f 50    	sub.b     w0, #0x1, [w15]
    1108:	15 00 32    	bra       Z, 0x1134 <.L53>
    110a:	e2 4f 50    	sub.b     w0, #0x2, [w15]
    110c:	b5 ff 3a    	bra       NZ, 0x1078 <.L36>
    110e:	10 c0 b3    	mov.b     #0x1, w0
    1110:	3d e8 b7    	mov.b     WREG, 0x83d
    1112:	00 28 ef    	clr.w     0x800
    1114:	36 28 ef    	clr.w     0x836
    1116:	b0 c0 b3    	mov.b     #0xb, w0
    1118:	00 4d 78    	mov.b     w0, [w10]
    111a:	10 c0 b3    	mov.b     #0x1, w0
    111c:	80 4c 78    	mov.b     w0, [w9]
    111e:	26 f9 07    	rcall     0x36c <_UartStartTx> <.bb> <.bf> <.eb> <.ef>
    1120:	04 68 ef    	clr.b     0x804
    1122:	bb fd 37    	bra       0xc9a <.L47>

00001124 <.L38>:
    1124:	10 c0 b3    	mov.b     #0x1, w0
    1126:	04 e8 b7    	mov.b     WREG, 0x804
    1128:	f0 c0 b3    	mov.b     #0xf, w0
    112a:	00 4d 78    	mov.b     w0, [w10]
    112c:	10 c0 b3    	mov.b     #0x1, w0
    112e:	80 4c 78    	mov.b     w0, [w9]
    1130:	1d f9 07    	rcall     0x36c <_UartStartTx> <.bb> <.bf> <.eb> <.ef>
    1132:	b3 fd 37    	bra       0xc9a <.L47>

00001134 <.L53>:
    1134:	3c 68 ef    	clr.b     0x83c
    1136:	b0 c0 b3    	mov.b     #0xb, w0
    1138:	00 4d 78    	mov.b     w0, [w10]
    113a:	10 c0 b3    	mov.b     #0x1, w0
    113c:	80 4c 78    	mov.b     w0, [w9]
    113e:	16 f9 07    	rcall     0x36c <_UartStartTx> <.bb> <.bf> <.eb> <.ef>
    1140:	04 68 ef    	clr.b     0x804
    1142:	ab fd 37    	bra       0xc9a <.L47>

00001144 <_ReportFifoRxOverflow>:
    1144:	21 ce b3    	mov.b     #0xe2, w1
    1146:	40 d8 20    	mov.w     #0xd84, w0
    1148:	01 48 78    	mov.b     w1, [w0]
    114a:	11 c0 b3    	mov.b     #0x1, w1
    114c:	74 00 40    	add.w     w0, #0x14, w0
    114e:	01 48 78    	mov.b     w1, [w0]
    1150:	0d f9 37    	bra       0x36c <_UartStartTx> <.bb> <.bf> <.eb> <.ef>

00001152 <_ReportFifoTxOverflow>:
    1152:	31 ce b3    	mov.b     #0xe3, w1
    1154:	40 d8 20    	mov.w     #0xd84, w0
    1156:	01 48 78    	mov.b     w1, [w0]
    1158:	11 c0 b3    	mov.b     #0x1, w1
    115a:	74 00 40    	add.w     w0, #0x14, w0
    115c:	01 48 78    	mov.b     w1, [w0]
    115e:	06 f9 37    	bra       0x36c <_UartStartTx> <.bb> <.bf> <.eb> <.ef>

00001160 <_ReportRcProtocolError>:
    1160:	41 ce b3    	mov.b     #0xe4, w1
    1162:	40 d8 20    	mov.w     #0xd84, w0
    1164:	01 48 78    	mov.b     w1, [w0]
    1166:	11 c0 b3    	mov.b     #0x1, w1
    1168:	74 00 40    	add.w     w0, #0x14, w0
    116a:	01 48 78    	mov.b     w1, [w0]
    116c:	ff f8 37    	bra       0x36c <_UartStartTx> <.bb> <.bf> <.eb> <.ef>

0000116e <_ReportStartUp>:
    116e:	40 d8 20    	mov.w     #0xd84, w0
    1170:	00 c8 eb    	setm.b    [w0]
    1172:	71 c0 b3    	mov.b     #0x7, w1
    1174:	00 00 e8    	inc.w     w0, w0
    1176:	01 48 78    	mov.b     w1, [w0]
    1178:	01 ca b3    	mov.b     #0xa0, w1
    117a:	00 00 e8    	inc.w     w0, w0
    117c:	01 48 78    	mov.b     w1, [w0]
    117e:	31 c0 b3    	mov.b     #0x3, w1
    1180:	72 00 40    	add.w     w0, #0x12, w0
    1182:	01 48 78    	mov.b     w1, [w0]
    1184:	f3 f8 37    	bra       0x36c <_UartStartTx> <.bb> <.bf> <.eb> <.ef>

00001186 <_linterp>:
    1186:	81 02 41    	add.w     w2, w1, w5
    1188:	85 82 d1    	asr.w     w5, w5
    118a:	83 03 42    	add.w     w4, w3, w7
    118c:	87 83 d1    	asr.w     w7, w7
    118e:	80 8f 52    	sub.w     w5, w0, [w15]
    1190:	01 00 3c    	bra       GT, 0x1194 <.L3>
    1192:	85 00 78    	mov.w     w5, w1

00001194 <.L3>:
    1194:	80 8f 52    	sub.w     w5, w0, [w15]
    1196:	82 00 34    	bra       LE, 0x129c <.L4>
    1198:	05 03 78    	mov.w     w5, w6

0000119a <.L5>:
    119a:	80 8f 52    	sub.w     w5, w0, [w15]
    119c:	01 00 3c    	bra       GT, 0x11a0 <.L7>
    119e:	87 01 78    	mov.w     w7, w3

000011a0 <.L7>:
    11a0:	80 8f 52    	sub.w     w5, w0, [w15]
    11a2:	01 00 34    	bra       LE, 0x11a6 <.L9>
    11a4:	07 02 78    	mov.w     w7, w4

000011a6 <.L9>:
    11a6:	81 02 43    	add.w     w6, w1, w5
    11a8:	85 82 d1    	asr.w     w5, w5
    11aa:	83 03 42    	add.w     w4, w3, w7
    11ac:	87 83 d1    	asr.w     w7, w7
    11ae:	80 8f 52    	sub.w     w5, w0, [w15]
    11b0:	01 00 3c    	bra       GT, 0x11b4 <.L11>
    11b2:	85 00 78    	mov.w     w5, w1

000011b4 <.L11>:
    11b4:	80 8f 52    	sub.w     w5, w0, [w15]
    11b6:	01 00 34    	bra       LE, 0x11ba <.L13>
    11b8:	05 03 78    	mov.w     w5, w6

000011ba <.L13>:
    11ba:	80 8f 52    	sub.w     w5, w0, [w15]
    11bc:	6d 00 34    	bra       LE, 0x1298 <.L14>
    11be:	03 01 78    	mov.w     w3, w2

000011c0 <.L15>:
    11c0:	80 8f 52    	sub.w     w5, w0, [w15]
    11c2:	01 00 34    	bra       LE, 0x11c6 <.L17>
    11c4:	07 02 78    	mov.w     w7, w4

000011c6 <.L17>:
    11c6:	81 02 43    	add.w     w6, w1, w5
    11c8:	85 82 d1    	asr.w     w5, w5
    11ca:	82 01 42    	add.w     w4, w2, w3
    11cc:	83 81 d1    	asr.w     w3, w3
    11ce:	80 8f 52    	sub.w     w5, w0, [w15]
    11d0:	01 00 3c    	bra       GT, 0x11d4 <.L19>
    11d2:	85 00 78    	mov.w     w5, w1

000011d4 <.L19>:
    11d4:	80 8f 52    	sub.w     w5, w0, [w15]
    11d6:	01 00 34    	bra       LE, 0x11da <.L21>
    11d8:	05 03 78    	mov.w     w5, w6

000011da <.L21>:
    11da:	80 8f 52    	sub.w     w5, w0, [w15]
    11dc:	01 00 3c    	bra       GT, 0x11e0 <.L23>
    11de:	03 01 78    	mov.w     w3, w2

000011e0 <.L23>:
    11e0:	80 8f 52    	sub.w     w5, w0, [w15]
    11e2:	01 00 3c    	bra       GT, 0x11e6 <.L25>
    11e4:	84 01 78    	mov.w     w4, w3

000011e6 <.L25>:
    11e6:	81 02 43    	add.w     w6, w1, w5
    11e8:	85 82 d1    	asr.w     w5, w5
    11ea:	02 82 41    	add.w     w3, w2, w4
    11ec:	04 82 d1    	asr.w     w4, w4
    11ee:	80 8f 52    	sub.w     w5, w0, [w15]
    11f0:	01 00 3c    	bra       GT, 0x11f4 <.L27>
    11f2:	85 00 78    	mov.w     w5, w1

000011f4 <.L27>:
    11f4:	80 8f 52    	sub.w     w5, w0, [w15]
    11f6:	01 00 34    	bra       LE, 0x11fa <.L29>
    11f8:	05 03 78    	mov.w     w5, w6

000011fa <.L29>:
    11fa:	80 8f 52    	sub.w     w5, w0, [w15]
    11fc:	01 00 3c    	bra       GT, 0x1200 <.L31>
    11fe:	04 01 78    	mov.w     w4, w2

00001200 <.L31>:
    1200:	80 8f 52    	sub.w     w5, w0, [w15]
    1202:	01 00 34    	bra       LE, 0x1206 <.L33>
    1204:	84 01 78    	mov.w     w4, w3

00001206 <.L33>:
    1206:	01 02 43    	add.w     w6, w1, w4
    1208:	04 82 d1    	asr.w     w4, w4
    120a:	82 83 41    	add.w     w3, w2, w7
    120c:	87 83 d1    	asr.w     w7, w7
    120e:	80 0f 52    	sub.w     w4, w0, [w15]
    1210:	47 00 34    	bra       LE, 0x12a0 <.L34>
    1212:	81 02 78    	mov.w     w1, w5

00001214 <.L35>:
    1214:	80 0f 52    	sub.w     w4, w0, [w15]
    1216:	01 00 34    	bra       LE, 0x121a <.L37>
    1218:	04 03 78    	mov.w     w4, w6

0000121a <.L37>:
    121a:	80 0f 52    	sub.w     w4, w0, [w15]
    121c:	01 00 3c    	bra       GT, 0x1220 <.L39>
    121e:	07 01 78    	mov.w     w7, w2

00001220 <.L39>:
    1220:	80 0f 52    	sub.w     w4, w0, [w15]
    1222:	01 00 34    	bra       LE, 0x1226 <.L41>
    1224:	87 01 78    	mov.w     w7, w3

00001226 <.L41>:
    1226:	85 00 43    	add.w     w6, w5, w1
    1228:	81 80 d1    	asr.w     w1, w1
    122a:	82 83 41    	add.w     w3, w2, w7
    122c:	87 83 d1    	asr.w     w7, w7
    122e:	80 8f 50    	sub.w     w1, w0, [w15]
    1230:	01 00 3c    	bra       GT, 0x1234 <.L43>
    1232:	81 02 78    	mov.w     w1, w5

00001234 <.L43>:
    1234:	80 8f 50    	sub.w     w1, w0, [w15]
    1236:	2e 00 34    	bra       LE, 0x1294 <.L44>
    1238:	01 02 78    	mov.w     w1, w4

0000123a <.L45>:
    123a:	80 8f 50    	sub.w     w1, w0, [w15]
    123c:	01 00 3c    	bra       GT, 0x1240 <.L47>
    123e:	07 01 78    	mov.w     w7, w2

00001240 <.L47>:
    1240:	80 8f 50    	sub.w     w1, w0, [w15]
    1242:	01 00 34    	bra       LE, 0x1246 <.L49>
    1244:	87 01 78    	mov.w     w7, w3

00001246 <.L49>:
    1246:	85 00 42    	add.w     w4, w5, w1
    1248:	81 80 d1    	asr.w     w1, w1
    124a:	02 83 41    	add.w     w3, w2, w6
    124c:	06 83 d1    	asr.w     w6, w6
    124e:	80 8f 50    	sub.w     w1, w0, [w15]
    1250:	01 00 3c    	bra       GT, 0x1254 <.L51>
    1252:	81 02 78    	mov.w     w1, w5

00001254 <.L51>:
    1254:	80 8f 50    	sub.w     w1, w0, [w15]
    1256:	01 00 34    	bra       LE, 0x125a <.L53>
    1258:	01 02 78    	mov.w     w1, w4

0000125a <.L53>:
    125a:	80 8f 50    	sub.w     w1, w0, [w15]
    125c:	01 00 3c    	bra       GT, 0x1260 <.L55>
    125e:	06 01 78    	mov.w     w6, w2

00001260 <.L55>:
    1260:	80 8f 50    	sub.w     w1, w0, [w15]
    1262:	01 00 34    	bra       LE, 0x1266 <.L57>
    1264:	86 01 78    	mov.w     w6, w3

00001266 <.L57>:
    1266:	85 00 42    	add.w     w4, w5, w1
    1268:	81 80 d1    	asr.w     w1, w1
    126a:	02 83 41    	add.w     w3, w2, w6
    126c:	06 83 d1    	asr.w     w6, w6
    126e:	80 8f 50    	sub.w     w1, w0, [w15]
    1270:	01 00 3c    	bra       GT, 0x1274 <.L59>
    1272:	06 01 78    	mov.w     w6, w2

00001274 <.L59>:
    1274:	80 8f 50    	sub.w     w1, w0, [w15]
    1276:	01 00 3c    	bra       GT, 0x127a <.L61>
    1278:	81 02 78    	mov.w     w1, w5

0000127a <.L61>:
    127a:	80 8f 50    	sub.w     w1, w0, [w15]
    127c:	01 00 34    	bra       LE, 0x1280 <.L63>
    127e:	01 02 78    	mov.w     w1, w4

00001280 <.L63>:
    1280:	04 82 42    	add.w     w5, w4, w4
    1282:	80 8f 50    	sub.w     w1, w0, [w15]
    1284:	01 00 34    	bra       LE, 0x1288 <.L65>
    1286:	86 01 78    	mov.w     w6, w3

00001288 <.L65>:
    1288:	83 01 41    	add.w     w2, w3, w3
    128a:	04 82 d1    	asr.w     w4, w4
    128c:	80 0f 52    	sub.w     w4, w0, [w15]
    128e:	0a 00 34    	bra       LE, 0x12a4 <.L66>
    1290:	02 00 78    	mov.w     w2, w0
    1292:	00 00 06    	return    

00001294 <.L44>:
    1294:	06 02 78    	mov.w     w6, w4
    1296:	d1 ff 37    	bra       0x123a <.L45>

00001298 <.L14>:
    1298:	07 01 78    	mov.w     w7, w2
    129a:	92 ff 37    	bra       0x11c0 <.L15>

0000129c <.L4>:
    129c:	02 03 78    	mov.w     w2, w6
    129e:	7d ff 37    	bra       0x119a <.L5>

000012a0 <.L34>:
    12a0:	84 02 78    	mov.w     w4, w5
    12a2:	b8 ff 37    	bra       0x1214 <.L35>

000012a4 <.L66>:
    12a4:	03 80 d1    	asr.w     w3, w0
    12a6:	00 00 06    	return    

000012a8 <_Limiter>:
BYTE MaxHeaterUGuard = 0;
BYTE MaxHeaterPGuard = 0;

void Limiter(void)
{
    12a8:	06 00 fa    	lnk       #0x6
    12aa:	88 9f be    	mov.d     w8, [w15++]
	ULONG_UNION Tmp;

	if(ADC8x14DataAveraged[1] > MaxHeaterI)
    12ac:	18 43 80    	mov.w     0x862, w8
    12ae:	a0 43 80    	mov.w     0x874, w0
    12b0:	88 0f 50    	sub.w     w0, w8, [w15]
    12b2:	02 00 31    	bra       C, 0x12b8 <.L2>
	{ // Превышение ограничения по току
		MaxHeaterIGuard = 1;
    12b4:	10 c0 b3    	mov.b     #0x1, w0
    12b6:	6e e8 b7    	mov.b     WREG, 0x86e

000012b8 <.L2>:
	}

	if( (DacData[0] > DacData0Max) && (ADC8x14DataAveraged[1] > (MaxHeaterISoft >> 1)) )
    12b8:	20 79 80    	mov.w     0xf24, w0
    12ba:	b1 44 80    	mov.w     0x896, w1
    12bc:	81 0f 50    	sub.w     w0, w1, [w15]
    12be:	4e 00 3e    	bra       GTU, 0x135c <.L15>
    12c0:	d9 43 80    	mov.w     0x87a, w9

000012c2 <.L3>:
	{ // Превышение по мягкому ограничения тока
		MaxHeaterISoftCount = 100;
		DacData[0] = DacData0Max;
	}
	else
	{
		if(MaxHeaterISoftCount != 0)
    12c2:	c1 86 20    	mov.w     #0x86c, w1
    12c4:	91 40 78    	mov.b     [w1], w1
    12c6:	01 04 e0    	cp0.b     w1
    12c8:	5e 00 3a    	bra       NZ, 0x1386 <.L17>

000012ca <.L6>:
			--MaxHeaterISoftCount;
	}

	Tmp.AsStruct.MInt = DacData[0];
    12ca:	c0 bf 9f    	mov.w     w0, [w15-8]
	Tmp.AsStruct.HByte = 0;
    12cc:	00 42 eb    	clr.b     w4
    12ce:	e4 f7 9f    	mov.b     w4, [w15-10]
	
	if(ADC8x14DataAveraged[1] != 0)
    12d0:	08 00 e0    	cp0.w     w8
    12d2:	4e 00 3a    	bra       NZ, 0x1370 <.L4>
		KHeaterIToRef = Tmp.AsUlong/(ULONG)ADC8x14DataAveraged[1]; //KHeaterIToRef = DacData[0]/ADC8x14DataAveraged[1]
	else
		KHeaterIToRef = 0xffffffff;
    12d4:	68 a8 ef    	setm.w    0x868
    12d6:	6a a8 ef    	setm.w    0x86a
    12d8:	40 ff 2f    	mov.w     #0xfff4, w0
    12da:	f1 ff 2f    	mov.w     #0xffff, w1

000012dc <.L8>:
	
	Tmp.AsUlong = KHeaterIToRef_Medium*244 + KHeaterIToRef*12;
    12dc:	42 0f 20    	mov.w     #0xf4, w2
    12de:	a4 44 80    	mov.w     0x894, w4
    12e0:	02 a2 b9    	mul.ss    w4, w2, w4
    12e2:	93 44 80    	mov.w     0x892, w3
    12e4:	02 19 b8    	mul.uu    w3, w2, w2
    12e6:	83 01 42    	add.w     w4, w3, w3
    12e8:	00 02 41    	add.w     w2, w0, w4
    12ea:	81 82 49    	addc.w    w3, w1, w5
    12ec:	b4 bf 9f    	mov.w     w4, [w15-10]
    12ee:	c5 bf 9f    	mov.w     w5, [w15-8]

	KHeaterIToRef_Medium = Tmp.AsStruct.MInt; // x/256
    12f0:	4f b8 97    	mov.w     [w15-8], w0
    12f2:	90 44 88    	mov.w     w0, 0x892
    12f4:	94 28 ef    	clr.w     0x894
	MulIShift8(MaxHeaterISoft, KHeaterIToRef_Medium, DacData0Max); //DacData0Max = MaxHeaterISoft*KHeaterIToRef_Medium
    12f6:	00 48 b8    	mul.uu    w9, w0, w0
    12f8:	50 40 88    	mov.w     w0, 0x80a
    12fa:	61 40 88    	mov.w     w1, 0x80c
    12fc:	b5 80 20    	mov.w     #0x80b, w5
    12fe:	95 42 78    	mov.b     [w5], w5
    1300:	60 89 20    	mov.w     #0x896, w0
    1302:	05 48 78    	mov.b     w5, [w0]
    1304:	c1 80 20    	mov.w     #0x80c, w1
    1306:	91 40 78    	mov.b     [w1], w1
    1308:	72 89 20    	mov.w     #0x897, w2
    130a:	01 49 78    	mov.b     w1, [w2]

	if(ADC8x14DataAveraged[2] > MaxHeaterU)
    130c:	20 43 80    	mov.w     0x864, w0
    130e:	76 08 e3    	cp.w      0x876
    1310:	21 00 39    	bra       NC, 0x1354 <.L9>
    1312:	02 87 20    	mov.w     #0x870, w2
    1314:	12 41 78    	mov.b     [w2], w2

00001316 <.L10>:
	{ // Превышение ограничения по напряжению
		MaxHeaterUGuard = 1;
	}

	MulIShift16(ADC8x14DataAveraged[1], ADC8x14DataAveraged[2], HeaterP);
    1316:	38 40 88    	mov.w     w8, 0x806
    1318:	08 28 ef    	clr.w     0x808
    131a:	00 44 b8    	mul.uu    w8, w0, w8
    131c:	58 40 88    	mov.w     w8, 0x80a
    131e:	69 40 88    	mov.w     w9, 0x80c
    1320:	c5 80 20    	mov.w     #0x80c, w5
    1322:	95 42 78    	mov.b     [w5], w5
    1324:	c0 87 20    	mov.w     #0x87c, w0
    1326:	05 48 78    	mov.b     w5, [w0]
    1328:	d1 80 20    	mov.w     #0x80d, w1
    132a:	91 40 78    	mov.b     [w1], w1
    132c:	d3 87 20    	mov.w     #0x87d, w3
    132e:	81 49 78    	mov.b     w1, [w3]
	if(HeaterP > MaxHeaterP)
    1330:	c0 43 80    	mov.w     0x878, w0
    1332:	7c 08 e3    	cp.w      0x87c
    1334:	0b 00 3e    	bra       GTU, 0x134c <.L11>
    1336:	21 87 20    	mov.w     #0x872, w1
    1338:	91 40 78    	mov.b     [w1], w1

0000133a <.L12>:
	{ // Превышение ограничения по мощности
		MaxHeaterPGuard = 1;
	}
	
	if(MaxHeaterIGuard | MaxHeaterUGuard | MaxHeaterPGuard)
    133a:	02 40 78    	mov.b     w2, w0
    133c:	6e 48 b7    	ior.b     0x86e, WREG
    133e:	01 40 70    	ior.b     w0, w1, w0
    1340:	02 00 32    	bra       Z, 0x1346 <.L1>
		DacData[0] = 0x0000;
    1342:	40 f2 20    	mov.w     #0xf24, w0
    1344:	00 08 eb    	clr.w     [w0]

00001346 <.L1>:
}
    1346:	4f 04 be    	mov.d     [--w15], w8
    1348:	00 80 fa    	ulnk      
    134a:	00 00 06    	return    

0000134c <.L11>:
    134c:	11 c0 b3    	mov.b     #0x1, w1
    134e:	24 87 20    	mov.w     #0x872, w4
    1350:	01 4a 78    	mov.b     w1, [w4]
    1352:	f3 ff 37    	bra       0x133a <.L12>

00001354 <.L9>:
    1354:	12 c0 b3    	mov.b     #0x1, w2
    1356:	03 87 20    	mov.w     #0x870, w3
    1358:	82 49 78    	mov.b     w2, [w3]
    135a:	dd ff 37    	bra       0x1316 <.L10>

0000135c <.L15>:
    135c:	d9 43 80    	mov.w     0x87a, w9
    135e:	09 01 d1    	lsr.w     w9, w2
    1360:	82 0f 54    	sub.w     w8, w2, [w15]
    1362:	af ff 36    	bra       LEU, 0x12c2 <.L3>
    1364:	40 c6 b3    	mov.b     #0x64, w0
    1366:	6c e8 b7    	mov.b     WREG, 0x86c
    1368:	21 79 88    	mov.w     w1, 0xf24
    136a:	c1 bf 9f    	mov.w     w1, [w15-8]
    136c:	80 40 eb    	clr.b     w1
    136e:	e1 f7 9f    	mov.b     w1, [w15-10]

00001370 <.L4>:
    1370:	08 01 78    	mov.w     w8, w2
    1372:	80 01 eb    	clr.w     w3
    1374:	3f b8 97    	mov.w     [w15-10], w0
    1376:	cf b8 97    	mov.w     [w15-8], w1
    1378:	03 f9 07    	rcall     0x580 <___udivsi3> <.libm>
    137a:	40 43 88    	mov.w     w0, 0x868
    137c:	51 43 88    	mov.w     w1, 0x86a
    137e:	6c 09 b9    	mul.su    w1, #0xc, w2
    1380:	6c 00 b8    	mul.uu    w0, #0xc, w0
    1382:	81 00 41    	add.w     w2, w1, w1
    1384:	ab ff 37    	bra       0x12dc <.L8>

00001386 <.L17>:
    1386:	81 40 e9    	dec.b     w1, w1
    1388:	c2 86 20    	mov.w     #0x86c, w2
    138a:	01 49 78    	mov.b     w1, [w2]
    138c:	9e ff 37    	bra       0x12ca <.L6>
Disassembly of section .text.tn_task_create:

0000138e <_tn_task_create>:
      int                     task_stack_size,
      void                   *param,
      enum TN_TaskCreateOpt   opts
      )
{
    138e:	e8 87 47    	add.w     w15, #0x8, w15
    1390:	88 9f be    	mov.d     w8, [w15++]
    1392:	8a 9f be    	mov.d     w10, [w15++]
    1394:	8c 9f be    	mov.d     w12, [w15++]
    1396:	8e 1f 78    	mov.w     w14, [w15++]
    1398:	00 04 be    	mov.d     w0, w8
    139a:	02 05 be    	mov.d     w2, w10
    139c:	84 06 78    	mov.w     w4, w13
    139e:	e5 b7 9f    	mov.w     w5, [w15-20]
    13a0:	f6 b7 9f    	mov.w     w6, [w15-18]
   TN_INTSAVE_DATA;
   enum TN_RCode rc;
   enum TN_Context context;

   int i;

   //-- Lightweight checking of system tasks recreation
   if (     priority == (TN_PRIORITIES_CNT - 1)
    13a2:	ef 0f 55    	sub.w     w10, #0xf, [w15]
    13a4:	05 00 3a    	bra       NZ, 0x13b0 <.L105>
         && !(opts & _TN_TASK_CREATE_OPT_IDLE)
      )
   {
      return TN_RC_WPARAM;
    13a6:	b1 ff 2f    	mov.w     #0xfffb, w1
    13a8:	06 00 78    	mov.w     w6, w0
    13aa:	00 18 a3    	btst.z    w0, #0x1
    13ac:	59 00 32    	bra       Z, 0x1460 <.L106>
    13ae:	03 00 37    	bra       0x13b6 <.L120>

000013b0 <.L105>:
   }

   if (0
         || (priority < 0 || priority > (TN_PRIORITIES_CNT - 1))
         || task_stack_size < TN_MIN_STACK_SIZE
         || task_func == TN_NULL
         || task == TN_NULL
         || task_stack_low_addr == TN_NULL
         || _tn_task_is_valid(task)
      )
   {
      return TN_RC_WPARAM;
    13b0:	b1 ff 2f    	mov.w     #0xfffb, w1
    13b2:	ef 0f 55    	sub.w     w10, #0xf, [w15]
    13b4:	55 00 3e    	bra       GTU, 0x1460 <.L106>

000013b6 <.L120>:
    13b6:	b1 ff 2f    	mov.w     #0xfffb, w1
    13b8:	f8 8f 56    	sub.w     w13, #0x18, [w15]
    13ba:	52 00 34    	bra       LE, 0x1460 <.L106>
    13bc:	09 00 e0    	cp0.w     w9
    13be:	50 00 32    	bra       Z, 0x1460 <.L106>
    13c0:	08 00 e0    	cp0.w     w8
    13c2:	4e 00 32    	bra       Z, 0x1460 <.L106>
    13c4:	0b 00 e0    	cp0.w     w11
    13c6:	4c 00 32    	bra       Z, 0x1460 <.L106>
    13c8:	18 00 90    	mov.w     [w8+2], w0
    13ca:	81 bf 9f    	mov.w     w1, [w15-16]
    13cc:	9e 2b 02    	call      0x2b9e <.eb>
    13ce:	00 00 00 
    13d0:	8f b8 97    	mov.w     [w15-16], w1
    13d2:	00 00 e0    	cp0.w     w0
    13d4:	45 00 3a    	bra       NZ, 0x1460 <.L106>
   }

   rc = TN_RC_OK;

   context = tn_sys_context_get();
    13d6:	c6 29 02    	call      0x29c6 <.eb>
    13d8:	00 00 00 
    13da:	00 06 78    	mov.w     w0, w12

   //-- Note: since `tn_task_create()` is called from `tn_sys_start()`, it
   //   is allowed to have `#TN_CONTEXT_NONE` here. In this case,
   //   interrupts aren't disabled/enabled.
   if (context != TN_CONTEXT_TASK && context != TN_CONTEXT_NONE){
      return TN_RC_WCONTEXT;
    13dc:	d1 ff 2f    	mov.w     #0xfffd, w1
    13de:	e1 0f 56    	sub.w     w12, #0x1, [w15]
    13e0:	3f 00 3e    	bra       GTU, 0x1460 <.L106>
    13e2:	00 87 eb    	setm.w    w14
   }

   if (context == TN_CONTEXT_TASK){
    13e4:	03 00 3a    	bra       NZ, 0x13ec <.L107>
      TN_INT_DIS_SAVE();
    13e6:	8a 16 02    	call      0x168a <_tn_arch_sr_save_int_dis>
    13e8:	00 00 00 
    13ea:	00 07 78    	mov.w     w0, w14

000013ec <.L107>:
   }

   //--- Init task structure
   task->task_func_addr  = task_func;
    13ec:	49 14 98    	mov.w     w9, [w8+40]
   task->task_func_param = param;
    13ee:	6f b0 97    	mov.w     [w15-20], w0
    13f0:	50 14 98    	mov.w     w0, [w8+42]

   task->stack_low_addr = task_stack_low_addr;
    13f2:	2b 14 98    	mov.w     w11, [w8+36]
   task->stack_high_addr = task_stack_low_addr + task_stack_size - 1;
    13f4:	0d 00 e9    	dec.w     w13, w0
    13f6:	00 00 40    	add.w     w0, w0, w0
    13f8:	00 80 45    	add.w     w11, w0, w0
    13fa:	30 14 98    	mov.w     w0, [w8+38]

   task->base_priority   = priority;
    13fc:	6a 14 98    	mov.w     w10, [w8+44]
   task->task_state      = TN_TASK_STATE_NONE;
    13fe:	00 00 eb    	clr.w     w0
    1400:	00 1c 98    	mov.w     w0, [w8+48]
   task->id_task         = TN_ID_TASK;
    1402:	91 f6 2c    	mov.w     #0xcf69, w1
    1404:	11 04 98    	mov.w     w1, [w8+2]

   task->task_wait_reason = TN_WAIT_REASON_NONE;
    1406:	10 1c 98    	mov.w     w0, [w8+50]
   task->task_wait_rc = TN_RC_OK;
    1408:	20 1c 98    	mov.w     w0, [w8+52]

   task->pwait_queue  = TN_NULL;
    140a:	30 0c 98    	mov.w     w0, [w8+22]

0000140c <.L108>:

#if TN_PROFILER
   memset(&task->profiler, 0x00, sizeof(task->profiler));
#endif

   //-- fill all task stack space by #TN_FILL_STACK_VAL
   {
      TN_UWord *ptr_stack;
      for (
            i = 0, ptr_stack = task_stack_low_addr;
            i < task_stack_size;
            i++ 
          )
      {
         *ptr_stack++ = TN_FILL_STACK_VAL;
    140c:	d1 ee 2f    	mov.w     #0xfeed, w1
    140e:	81 1d 78    	mov.w     w1, [w11++]
    1410:	00 00 e8    	inc.w     w0, w0
    1412:	8d 0f 50    	sub.w     w0, w13, [w15]
    1414:	fb ff 3a    	bra       NZ, 0x140c <.L108>
      }
   }

   //-- reset task_queue (the queue used to include task to runqueue or 
   //   waitqueue)
   _tn_list_reset(&(task->task_queue));
    1416:	64 00 44    	add.w     w8, #0x4, w0
    1418:	04 2d 02    	call      0x2d04 <.eb>
    141a:	00 00 00 

   //-- init timer that is needed to implement task wait timeout
   _tn_timer_create(&task->timer, _task_wait_timeout, task);
    141c:	68 00 44    	add.w     w8, #0x8, w0
    141e:	08 01 78    	mov.w     w8, w2
    1420:	21 c6 22    	mov.w     #0x2c62, w1
    1422:	90 26 02    	call      0x2690 <.eb>
    1424:	00 00 00 

   //-- init auxiliary lists needed for tasks
   _init_mutex_queue(task);
    1426:	08 00 78    	mov.w     w8, w0
    1428:	92 2c 02    	call      0x2c92 <.eb>
    142a:	00 00 00 
   _init_deadlock_list(task);
    142c:	08 00 78    	mov.w     w8, w0
    142e:	98 2c 02    	call      0x2c98 <.eb>
    1430:	00 00 00 

   //-- Set initial task state: `TN_TASK_STATE_DORMANT`
   _tn_task_set_dormant(task);
    1432:	08 00 78    	mov.w     w8, w0
    1434:	e0 2a 02    	call      0x2ae0 <.eb>
    1436:	00 00 00 

   //-- Add task to created task queue
   _tn_list_add_tail(&_tn_tasks_created_list, &(task->create_queue));
    1438:	f8 00 44    	add.w     w8, #0x18, w1
    143a:	c0 c7 20    	mov.w     #0xc7c, w0
    143c:	32 2c 02    	call      0x2c32 <.eb>
    143e:	00 00 00 
   _tn_tasks_created_cnt++;
    1440:	00 64 80    	mov.w     0xc80, w0
    1442:	00 00 e8    	inc.w     w0, w0
    1444:	00 64 88    	mov.w     w0, 0xc80

   if ((opts & TN_TASK_CREATE_OPT_START)){
    1446:	7f b0 97    	mov.w     [w15-18], w0
    1448:	00 08 a3    	btst.z    w0, #0x0
    144a:	03 00 32    	bra       Z, 0x1452 <.L109>
      _tn_task_activate(task);
    144c:	08 00 78    	mov.w     w8, w0
    144e:	b6 26 02    	call      0x26b6 <.eb>
    1450:	00 00 00 

00001452 <.L109>:
   }

   if (context == TN_CONTEXT_TASK){
      TN_INT_RESTORE();
   }

   return rc;
    1452:	80 00 eb    	clr.w     w1
    1454:	e1 0f 56    	sub.w     w12, #0x1, [w15]
    1456:	04 00 3a    	bra       NZ, 0x1460 <.L106>
    1458:	0e 00 78    	mov.w     w14, w0
    145a:	98 16 02    	call      0x1698 <_tn_arch_sr_restore>
    145c:	00 00 00 
    145e:	80 00 eb    	clr.w     w1

00001460 <.L106>:
}
    1460:	01 00 78    	mov.w     w1, w0
    1462:	4f 07 78    	mov.w     [--w15], w14
    1464:	4f 06 be    	mov.d     [--w15], w12
    1466:	4f 05 be    	mov.d     [--w15], w10
    1468:	4f 04 be    	mov.d     [--w15], w8
    146a:	8f 00 b1    	sub.w     #0x8, w15
    146c:	00 00 06    	return    
Disassembly of section .dinit:

0000146e <.dinit>:
    146e:	9e 08 00    	nop       
    1470:	96 03 00    	nop       
    1472:	00 00 00    	nop       
    1474:	68 08 00    	nop       
    1476:	16 00 00    	nop       
    1478:	00 00 00    	nop       
    147a:	92 08 00    	nop       
    147c:	06 00 00    	nop       
    147e:	02 00 00    	nop       
    1480:	7f 00 00    	nop       
    1482:	00 ff ff    	nopr      
    1484:	9a 0d 00    	nop       
    1486:	82 00 00    	nop       
    1488:	00 00 00    	nop       
    148a:	98 08 00    	nop       
    148c:	02 00 00    	nop       
    148e:	00 00 00    	nop       
    1490:	ec 0c 00    	nop       
    1492:	ae 00 00    	nop       
    1494:	00 00 00    	nop       
    1496:	9a 08 00    	nop       
    1498:	02 00 00    	nop       
    149a:	00 00 00    	nop       
    149c:	44 0f 00    	nop       
    149e:	10 00 00    	nop       
    14a0:	00 00 00    	nop       
    14a2:	50 08 00    	nop       
    14a4:	18 00 00    	nop       
    14a6:	00 00 00    	nop       
    14a8:	24 0f 00    	nop       
    14aa:	20 00 00    	nop       
    14ac:	00 00 00    	nop       
    14ae:	54 0f 00    	nop       
    14b0:	06 00 00    	nop       
    14b2:	00 00 00    	nop       
    14b4:	1c 0e 00    	nop       
    14b6:	80 00 00    	nop       
    14b8:	02 00 00    	nop       
    14ba:	1c fe b0    	addc.b    #0xe1, w12
    14bc:	ff 5e 01    	.pword 0x015eff
    14be:	19 03 d6    	rlnc.w    0x319, WREG
    14c0:	04 8a 06    	.pword 0x068a04
    14c2:	38 08 e8    	inc.w     [w8++], [w0]
    14c4:	09 a1 0b    	.pword 0x0ba109
    14c6:	5f 0d 22    	mov.w     #0x20d5, w15
    14c8:	0f e7 10    	subr.b    w1, w15, [--w14]
    14ca:	af 12 78    	mov.w     [w15--], [w5--]
    14cc:	14 43 16    	subr.b    w12, [w4], w6
    14ce:	0d 18 d6    	rlnc.w    0x180d, WREG
    14d0:	19 9d 1b    	subbr.w   w7, [w9], [w10++]
    14d2:	61 1d 22    	mov.w     #0x21d6, w1
    14d4:	1f de 20    	mov.w     #0xde1, w15
    14d6:	95 22 48    	addc.w    w0, [w5], [--w5]
    14d8:	24 f6 25    	mov.w     #0x5f62, w4
    14da:	a0 27 45    	add.w     w10, [w0--], [--w15]
    14dc:	29 e5 2a    	mov.w     #0xae52, w9
    14de:	80 2c 17    	subr.w    w14, w0, [++w9]
    14e0:	2e a7 2f    	mov.w     #0xfa72, w14
    14e2:	31 31 b4    	add.w     0x1131
    14e4:	32 e0 fc    	.pword 0xfce032
	...
    1510:	9c 0e 00    	nop       
    1512:	60 00 00    	nop       
    1514:	00 00 00    	nop       
    1516:	7e 08 00    	nop       
    1518:	14 00 00    	nop       
    151a:	02 00 00    	nop       
    151c:	00 01 00    	nop       
    151e:	01 00 01    	call      w1
    1520:	00 01 20    	mov.w     #0x10, w0
    1522:	00 30 00    	nop       
    1524:	40 00 fa    	lnk       #0x40
    1526:	00 8f 02    	call      0x2a058f00 <__config_JTAGEN+0x290d8ef2>
    1528:	05 2a 00 
    152a:	00 08 00    	nop       
    152c:	50 00 00    	nop       
    152e:	00 00 00    	nop       
    1530:	9c 08 00    	nop       
    1532:	02 00 00    	nop       
    1534:	02 00 00    	nop       
    1536:	d2 02 00    	nop       
    1538:	5a 0f 00    	nop       
    153a:	04 00 00    	nop       
    153c:	00 00 00    	nop       
    153e:	34 0c 00    	nop       
    1540:	b8 00 00    	nop       
    1542:	00 00 00    	nop       
    1544:	fc 0e 00    	nop       
    1546:	28 00 00    	nop       
	...
Disassembly of section .text._build_cfg_check:

0000154c <__build_cfg_check>:
 * See `#TN_CHECK_BUILD_CFG` for details.
 */
#if TN_CHECK_BUILD_CFG
static void _build_cfg_check(void)
{
    154c:	06 00 fa    	lnk       #0x6
   struct _TN_BuildCfg kernel_build_cfg;
   _TN_BUILD_CFG_STRUCT_FILL(&kernel_build_cfg);
    154e:	66 80 57    	sub.w     w15, #0x6, w0
    1550:	02 00 09    	repeat    #0x2
    1552:	00 18 eb    	clr.w     [w0++]
    1554:	01 f8 2f    	mov.w     #0xff80, w1
    1556:	5f b9 97    	mov.w     [w15-6], w2
    1558:	81 00 61    	and.w     w2, w1, w1
    155a:	00 e9 20    	mov.w     #0xe90, w0
    155c:	00 80 70    	ior.w     w1, w0, w0
    155e:	d0 bf 9f    	mov.w     w0, [w15-6]
    1560:	70 c0 b3    	mov.b     #0x7, w0
    1562:	c0 ff 9f    	mov.b     w0, [w15-4]
    1564:	f0 cf 2f    	mov.w     #0xfcff, w0
    1566:	ef b8 97    	mov.w     [w15-4], w1
    1568:	00 80 60    	and.w     w1, w0, w0
    156a:	00 90 a0    	bset.w    w0, #0x9
    156c:	e0 bf 9f    	mov.w     w0, [w15-4]
    156e:	80 ff 2f    	mov.w     #0xfff8, w0
    1570:	ff b8 97    	mov.w     [w15-2], w1
    1572:	00 80 60    	and.w     w1, w0, w0
    1574:	00 20 a0    	bset.w    w0, #0x2
    1576:	f0 bf 9f    	mov.w     w0, [w15-2]

   //-- call dummy function that helps user to understand that
   //   he/she forgot to add file tn_app_check.c to the project
   you_should_add_file___tn_app_check_c___to_the_project();
    1578:	26 25 02    	call      0x2526 <.eb>
    157a:	00 00 00 

   //-- get application build cfg
   const struct _TN_BuildCfg *app_build_cfg = tn_app_build_cfg_get();
    157c:	28 25 02    	call      0x2528 <_tn_app_build_cfg_get>
    157e:	00 00 00 

   //-- now, check each option

   if (kernel_build_cfg.priorities_cnt != app_build_cfg->priorities_cnt){
    1580:	5f b9 97    	mov.w     [w15-6], w2
    1582:	90 00 69    	xor.w     w2, [w0], w1
    1584:	01 01 78    	mov.w     w1, w2
    1586:	f2 07 b2    	and.w     #0x7f, w2
    1588:	02 00 32    	bra       Z, 0x158e <.L10>
      _TN_FATAL_ERROR("TN_PRIORITIES_CNT doesn't match");
    158a:	00 40 da    	break     
    158c:	00 00 00    	nop       

0000158e <.L10>:
   }

   if (kernel_build_cfg.check_param != app_build_cfg->check_param){
    158e:	01 78 a3    	btst.z    w1, #0x7
    1590:	02 00 32    	bra       Z, 0x1596 <.L11>
      _TN_FATAL_ERROR("TN_CHECK_PARAM doesn't match");
    1592:	00 40 da    	break     
    1594:	00 00 00    	nop       

00001596 <.L11>:
   }

   if (kernel_build_cfg.debug != app_build_cfg->debug){
    1596:	01 88 a3    	btst.z    w1, #0x8
    1598:	02 00 32    	bra       Z, 0x159e <.L12>
      _TN_FATAL_ERROR("TN_DEBUG doesn't match");
    159a:	00 40 da    	break     
    159c:	00 00 00    	nop       

0000159e <.L12>:
   }

   if (kernel_build_cfg.use_mutexes != app_build_cfg->use_mutexes){
    159e:	01 98 a3    	btst.z    w1, #0x9
    15a0:	02 00 32    	bra       Z, 0x15a6 <.L13>
      _TN_FATAL_ERROR("TN_USE_MUTEXES doesn't match");
    15a2:	00 40 da    	break     
    15a4:	00 00 00    	nop       

000015a6 <.L13>:
   }

   if (kernel_build_cfg.mutex_rec != app_build_cfg->mutex_rec){
    15a6:	01 a8 a3    	btst.z    w1, #0xa
    15a8:	02 00 32    	bra       Z, 0x15ae <.L14>
      _TN_FATAL_ERROR("TN_MUTEX_REC doesn't match");
    15aa:	00 40 da    	break     
    15ac:	00 00 00    	nop       

000015ae <.L14>:
   }

   if (kernel_build_cfg.mutex_deadlock_detect != app_build_cfg->mutex_deadlock_detect){
    15ae:	01 b8 a3    	btst.z    w1, #0xb
    15b0:	02 00 32    	bra       Z, 0x15b6 <.L15>
      _TN_FATAL_ERROR("TN_MUTEX_DEADLOCK_DETECT doesn't match");
    15b2:	00 40 da    	break     
    15b4:	00 00 00    	nop       

000015b6 <.L15>:
   }

   if (kernel_build_cfg.tick_lists_cnt_minus_one != app_build_cfg->tick_lists_cnt_minus_one){
    15b6:	a0 40 90    	mov.b     [w0+2], w1
    15b8:	e7 cf 50    	sub.b     w1, #0x7, [w15]
    15ba:	02 00 32    	bra       Z, 0x15c0 <.L16>
      _TN_FATAL_ERROR("TN_TICK_LISTS_CNT doesn't match");
    15bc:	00 40 da    	break     
    15be:	00 00 00    	nop       

000015c0 <.L16>:
   }

   if (kernel_build_cfg.api_make_alig_arg != app_build_cfg->api_make_alig_arg){
    15c0:	10 01 90    	mov.w     [w0+2], w2
    15c2:	ef b8 97    	mov.w     [w15-4], w1
    15c4:	81 00 69    	xor.w     w2, w1, w1
    15c6:	01 01 78    	mov.w     w1, w2
    15c8:	02 30 b2    	and.w     #0x300, w2
    15ca:	02 00 32    	bra       Z, 0x15d0 <.L17>
      _TN_FATAL_ERROR("TN_API_MAKE_ALIG_ARG doesn't match");
    15cc:	00 40 da    	break     
    15ce:	00 00 00    	nop       

000015d0 <.L17>:
   }

   if (kernel_build_cfg.profiler != app_build_cfg->profiler){
    15d0:	01 a8 a3    	btst.z    w1, #0xa
    15d2:	02 00 32    	bra       Z, 0x15d8 <.L18>
      _TN_FATAL_ERROR("TN_PROFILER doesn't match");
    15d4:	00 40 da    	break     
    15d6:	00 00 00    	nop       

000015d8 <.L18>:
   }

   if (kernel_build_cfg.profiler_wait_time != app_build_cfg->profiler_wait_time){
    15d8:	01 b8 a3    	btst.z    w1, #0xb
    15da:	02 00 32    	bra       Z, 0x15e0 <.L19>
      _TN_FATAL_ERROR("TN_PROFILER_WAIT_TIME doesn't match");
    15dc:	00 40 da    	break     
    15de:	00 00 00    	nop       

000015e0 <.L19>:
   }

   if (kernel_build_cfg.stack_overflow_check != app_build_cfg->stack_overflow_check){
    15e0:	01 c8 a3    	btst.z    w1, #0xc
    15e2:	02 00 32    	bra       Z, 0x15e8 <.L20>
      _TN_FATAL_ERROR("TN_STACK_OVERFLOW_CHECK doesn't match");
    15e4:	00 40 da    	break     
    15e6:	00 00 00    	nop       

000015e8 <.L20>:
   }

   if (kernel_build_cfg.dynamic_tick != app_build_cfg->dynamic_tick){
    15e8:	01 d8 a3    	btst.z    w1, #0xd
    15ea:	02 00 32    	bra       Z, 0x15f0 <.L21>
      _TN_FATAL_ERROR("TN_DYNAMIC_TICK doesn't match");
    15ec:	00 40 da    	break     
    15ee:	00 00 00    	nop       

000015f0 <.L21>:
   }

   if (kernel_build_cfg.old_events_api != app_build_cfg->old_events_api){
    15f0:	01 e8 a3    	btst.z    w1, #0xe
    15f2:	02 00 32    	bra       Z, 0x15f8 <.L22>
      _TN_FATAL_ERROR("TN_OLD_EVENT_API doesn't match");
    15f4:	00 40 da    	break     
    15f6:	00 00 00    	nop       

000015f8 <.L22>:
   }

#if defined (__TN_ARCH_PIC24_DSPIC__)
   if (kernel_build_cfg.arch.p24.p24_sys_ipl != app_build_cfg->arch.p24.p24_sys_ipl){
    15f8:	20 01 90    	mov.w     [w0+4], w2
    15fa:	ff b8 97    	mov.w     [w15-2], w1
    15fc:	81 00 69    	xor.w     w2, w1, w1
    15fe:	e7 80 60    	and.w     w1, #0x7, w1
    1600:	02 00 32    	bra       Z, 0x1606 <.L23>
      _TN_FATAL_ERROR("TN_P24_SYS_IPL doesn't match");
    1602:	00 40 da    	break     
    1604:	00 00 00    	nop       

00001606 <.L23>:
   }
#endif


   //-- for the case I forgot to add some param above, perform generic check
   TN_BOOL cfg_match = 
      !memcmp(&kernel_build_cfg, app_build_cfg, sizeof(kernel_build_cfg));
    1606:	62 00 20    	mov.w     #0x6, w2
    1608:	80 00 78    	mov.w     w0, w1
    160a:	66 80 57    	sub.w     w15, #0x6, w0
    160c:	64 05 02    	call      0x564 <_memcmp>
    160e:	00 00 00 

   if (!cfg_match){
    1610:	00 00 e0    	cp0.w     w0
    1612:	02 00 32    	bra       Z, 0x1618 <.L9>
      _TN_FATAL_ERROR("configuration mismatch");
    1614:	00 40 da    	break     
    1616:	00 00 00    	nop       

00001618 <.L9>:
   }
}
    1618:	00 80 fa    	ulnk      
    161a:	00 00 06    	return    
Disassembly of section .text:

0000161c <__tn_arch_context_switch_now_nosave>:
    161c:	f0 ff 2f    	mov.w     #0xffff, w0
    161e:	00 01 88    	mov.w     w0, 0x20
    1620:	31 64 80    	mov.w     0xc86, w1
    1622:	40 c8 20    	mov.w     #0xc84, w0
    1624:	01 08 78    	mov.w     w1, [w0]
    1626:	91 07 78    	mov.w     [w1], w15
    1628:	21 00 37    	bra       0x166c <__tn_context_restore>

0000162a <__tn_arch_context_switch_pend>:
    162a:	40 08 20    	mov.w     #0x84, w0
    162c:	10 00 a0    	bset.w    [w0], #0x0
    162e:	00 00 06    	return    

00001630 <__INT0Interrupt>:
    1630:	42 00 f8    	push      0x42
    1632:	8e 1f 78    	mov.w     w14, [w15++]
    1634:	8c 9f be    	mov.d     w12, [w15++]
    1636:	8a 9f be    	mov.d     w10, [w15++]
    1638:	88 9f be    	mov.d     w8, [w15++]
    163a:	86 9f be    	mov.d     w6, [w15++]
    163c:	84 9f be    	mov.d     w4, [w15++]
    163e:	82 9f be    	mov.d     w2, [w15++]
    1640:	80 9f be    	mov.d     w0, [w15++]
    1642:	36 00 f8    	push      0x36
    1644:	32 00 f8    	push      0x32
    1646:	44 00 f8    	push      0x44
    1648:	34 00 f8    	push      0x34
    164a:	20 00 f8    	push      0x20
    164c:	20 64 80    	mov.w     0xc84, w0
    164e:	0f 08 78    	mov.w     w15, [w0]
    1650:	1a 02 80    	mov.w     0x42, w10
    1652:	10 02 80    	mov.w     0x42, w0
    1654:	00 88 b2    	xor.w     #0x80, w0
    1656:	00 0e b2    	and.w     #0xe0, w0
    1658:	42 a0 b6    	xor.w     0x42
    165a:	f2 ff 2f    	mov.w     #0xffff, w2
    165c:	02 01 88    	mov.w     w2, 0x20
    165e:	39 64 80    	mov.w     0xc86, w9
    1660:	42 c8 20    	mov.w     #0xc84, w2
    1662:	09 09 78    	mov.w     w9, [w2]
    1664:	99 07 78    	mov.w     [w9], w15
    1666:	42 08 20    	mov.w     #0x84, w2
    1668:	12 00 a1    	bclr.w    [w2], #0x0
    166a:	1a 02 88    	mov.w     w10, 0x42

0000166c <__tn_context_restore>:
    166c:	20 00 f9    	pop       0x20
    166e:	34 00 f9    	pop       0x34
    1670:	44 00 f9    	pop       0x44
    1672:	32 00 f9    	pop       0x32
    1674:	36 00 f9    	pop       0x36
    1676:	4f 00 be    	mov.d     [--w15], w0
    1678:	4f 01 be    	mov.d     [--w15], w2
    167a:	4f 02 be    	mov.d     [--w15], w4
    167c:	4f 03 be    	mov.d     [--w15], w6
    167e:	4f 04 be    	mov.d     [--w15], w8
    1680:	4f 05 be    	mov.d     [--w15], w10
    1682:	4f 06 be    	mov.d     [--w15], w12
    1684:	4f 07 78    	mov.w     [--w15], w14
    1686:	42 00 f9    	pop       0x42
    1688:	00 40 06    	retfie    

0000168a <_tn_arch_sr_save_int_dis>:
    168a:	11 02 80    	mov.w     0x42, w1
    168c:	10 02 80    	mov.w     0x42, w0
    168e:	00 88 b2    	xor.w     #0x80, w0
    1690:	00 0e b2    	and.w     #0xe0, w0
    1692:	42 a0 b6    	xor.w     0x42
    1694:	01 00 78    	mov.w     w1, w0
    1696:	00 00 06    	return    

00001698 <_tn_arch_sr_restore>:
    1698:	80 00 78    	mov.w     w0, w1
    169a:	01 0e b2    	and.w     #0xe0, w1
    169c:	10 02 80    	mov.w     0x42, w0
    169e:	01 00 68    	xor.w     w0, w1, w0
    16a0:	00 0e b2    	and.w     #0xe0, w0
    16a2:	42 a0 b6    	xor.w     0x42
    16a4:	00 00 06    	return    

000016a6 <_tn_arch_int_dis>:
    16a6:	8a 16 04    	goto      0x168a <_tn_arch_sr_save_int_dis>
    16a8:	00 00 00 

000016aa <_tn_arch_int_en>:
    16aa:	f0 f1 2f    	mov.w     #0xff1f, w0
    16ac:	42 00 b6    	and.w     0x42, WREG
    16ae:	00 00 06    	return    

000016b0 <__tn_arch_is_int_disabled>:
    16b0:	00 0e 20    	mov.w     #0xe0, w0
    16b2:	42 00 b6    	and.w     0x42, WREG
    16b4:	45 00 de    	lsr.w     w0, #0x5, w0
    16b6:	64 00 e1    	cp.w      w0, #0x4
    16b8:	02 00 31    	bra       C, 0x16be <L11>
    16ba:	00 00 20    	mov.w     #0x0, w0
    16bc:	01 00 37    	bra       0x16c0 <L21>

000016be <L11>:
    16be:	10 00 20    	mov.w     #0x1, w0

000016c0 <L21>:
    16c0:	00 00 06    	return    

000016c2 <__tn_arch_inside_isr>:
    16c2:	e0 7a 80    	mov.w     0xf5c, w0
    16c4:	20 00 e3    	cp.w      0x20
    16c6:	00 00 20    	mov.w     #0x0, w0
    16c8:	01 00 3a    	bra       NZ, 0x16cc <L12>
    16ca:	10 00 20    	mov.w     #0x1, w0

000016cc <L12>:
    16cc:	00 00 06    	return    

000016ce <__tn_p24_ffs_asm>:
    16ce:	00 00 cf    	ff1r      w0, w0
    16d0:	00 00 06    	return    
Disassembly of section .text.tn_sys_start:

000016d2 <_tn_sys_start>:
      unsigned int         int_stack_size,
      TN_CBUserTaskCreate *cb_user_task_create,
      TN_CBIdle           *cb_idle
      )
{
    16d2:	e6 87 47    	add.w     w15, #0x6, w15
    16d4:	88 9f be    	mov.d     w8, [w15++]
    16d6:	8a 9f be    	mov.d     w10, [w15++]
    16d8:	8c 9f be    	mov.d     w12, [w15++]
    16da:	8e 1f 78    	mov.w     w14, [w15++]
    16dc:	00 04 78    	mov.w     w0, w8
    16de:	01 05 78    	mov.w     w1, w10
    16e0:	82 04 78    	mov.w     w2, w9
    16e2:	83 05 78    	mov.w     w3, w11
    16e4:	04 06 78    	mov.w     w4, w12
    16e6:	f5 b7 9f    	mov.w     w5, [w15-18]
   unsigned int i;
   enum TN_RCode rc;

   //-- init timers
   _tn_timers_init();
    16e8:	22 27 02    	call      0x2722 <.eb>
    16ea:	00 00 00 

   //-- check that build configuration for the kernel and application match
   //   (if only TN_CHECK_BUILD_CFG is non-zero)
   _build_cfg_check();
    16ec:	4c 15 02    	call      0x154c <__build_cfg_check>
    16ee:	00 00 00 
    16f0:	a1 cc 20    	mov.w     #0xcca, w1

   //-- for each priority: 
   //   - reset list of runnable tasks with this priority
   //   - reset time slice to `#TN_NO_TIME_SLICE`
   for (i = 0; i < TN_PRIORITIES_CNT; i++){
    16f2:	00 07 eb    	clr.w     w14

000016f4 <.L30>:
      _tn_list_reset(&(_tn_tasks_ready_list[i]));
    16f4:	42 71 dd    	sl.w      w14, #0x2, w2
    16f6:	c0 c3 20    	mov.w     #0xc3c, w0
    16f8:	00 00 41    	add.w     w2, w0, w0
    16fa:	81 bf 9f    	mov.w     w1, [w15-16]
    16fc:	04 2d 02    	call      0x2d04 <.eb>
    16fe:	00 00 00 
      _tn_tslice_ticks[i] = TN_NO_TIME_SLICE;
    1700:	80 06 eb    	clr.w     w13
    1702:	8f b8 97    	mov.w     [w15-16], w1
    1704:	80 28 eb    	clr.w     [++w1]
    1706:	0e 07 e8    	inc.w     w14, w14
    1708:	f0 0f 57    	sub.w     w14, #0x10, [w15]
    170a:	f4 ff 3a    	bra       NZ, 0x16f4 <.L30>
   }

   //-- reset generic task queue and task count to 0
   _tn_list_reset(&_tn_tasks_created_list);
    170c:	c0 c7 20    	mov.w     #0xc7c, w0
    170e:	04 2d 02    	call      0x2d04 <.eb>
    1710:	00 00 00 
   _tn_tasks_created_cnt = 0;
    1712:	0d 64 88    	mov.w     w13, 0xc80

   //-- initial system flags: no flags set (see enum TN_StateFlag)
   _tn_sys_state = (enum TN_StateFlag)(0);  
    1714:	1d 64 88    	mov.w     w13, 0xc82

   //-- reset bitmask of priorities with runnable tasks
   _tn_ready_to_run_bmp = 0;
    1716:	4d 64 88    	mov.w     w13, 0xc88

   //-- reset pointers to currently running task and next task to run
   _tn_next_task_to_run = TN_NULL;
    1718:	3d 64 88    	mov.w     w13, 0xc86
   _tn_curr_run_task    = TN_NULL;
    171a:	2d 64 88    	mov.w     w13, 0xc84

   //-- remember user-provided callbacks
   _tn_cb_idle_hook = cb_idle;
    171c:	7f b0 97    	mov.w     [w15-18], w0
    171e:	a0 61 88    	mov.w     w0, 0xc34
    1720:	89 00 78    	mov.w     w9, w1

   //-- Fill interrupt stack space with TN_FILL_STACK_VAL
#if TN_INIT_INTERRUPT_STACK_SPACE
   for (i = 0; i < int_stack_size; i++){
    1722:	00 00 eb    	clr.w     w0
    1724:	03 00 37    	bra       0x172c <.L31>

00001726 <.L32>:
      int_stack[i] = TN_FILL_STACK_VAL;
    1726:	d2 ee 2f    	mov.w     #0xfeed, w2
    1728:	82 18 78    	mov.w     w2, [w1++]
    172a:	00 00 e8    	inc.w     w0, w0

0000172c <.L31>:
    172c:	8b 0f 50    	sub.w     w0, w11, [w15]
    172e:	fb ff 39    	bra       NC, 0x1726 <.L32>
   }
#endif

   /*
    * NOTE: we need to separate creation of tasks and making them runnable,
    *       because otherwise _tn_next_task_to_run would point on the task
    *       that isn't yet created, and it produces issues
    *       with order of task creation.
    *
    *       We should keep as little surprizes in the code as possible,
    *       so, it's better to just separate these steps and avoid any tricks.
    */

   //-- create system tasks
   rc = _idle_task_create(idle_task_stack, idle_task_stack_size);
    1730:	8a 00 78    	mov.w     w10, w1
    1732:	08 00 78    	mov.w     w8, w0
    1734:	66 2a 02    	call      0x2a66 <.eb>
    1736:	00 00 00 
   if (rc != TN_RC_OK){
    1738:	00 00 e0    	cp0.w     w0
    173a:	02 00 32    	bra       Z, 0x1740 <.L33>
      _TN_FATAL_ERROR("failed to create idle task");
    173c:	00 40 da    	break     
    173e:	00 00 00    	nop       

00001740 <.L33>:
   }

   //-- Just for the _tn_task_set_runnable() proper operation
   _tn_next_task_to_run = &_tn_idle_task; 
    1740:	a8 c8 20    	mov.w     #0xc8a, w8
    1742:	38 64 88    	mov.w     w8, 0xc86

   //-- make system tasks runnable
   rc = _tn_task_activate(&_tn_idle_task);
    1744:	08 00 78    	mov.w     w8, w0
    1746:	b6 26 02    	call      0x26b6 <.eb>
    1748:	00 00 00 
   if (rc != TN_RC_OK){
    174a:	00 00 e0    	cp0.w     w0
    174c:	02 00 32    	bra       Z, 0x1752 <.L34>
      _TN_FATAL_ERROR("failed to activate idle task");
    174e:	00 40 da    	break     
    1750:	00 00 00    	nop       

00001752 <.L34>:
   }

   //-- set _tn_curr_run_task to idle task
   _tn_curr_run_task = &_tn_idle_task;
    1752:	28 64 88    	mov.w     w8, 0xc84
#if TN_PROFILER
#if TN_DEBUG
   _tn_idle_task.profiler.is_running = 1;
#endif
#endif

   //-- now, we can create user's task(s)
   //   (by user-provided callback)
   cb_user_task_create();
    1754:	0c 00 01    	call      w12

   //-- set flag that system is running
   //   (well, it will be running soon actually)
   _tn_sys_state |= TN_STATE_FLAG__SYS_RUNNING;
    1756:	10 64 80    	mov.w     0xc82, w0
    1758:	00 00 a0    	bset.w    w0, #0x0
    175a:	10 64 88    	mov.w     w0, 0xc82

   //-- call architecture-dependent initialization and run the kernel:
   //   (perform first context switch)
   _tn_arch_sys_start(int_stack, int_stack_size);
    175c:	8b 00 78    	mov.w     w11, w1
    175e:	09 00 78    	mov.w     w9, w0
    1760:	48 29 02    	call      0x2948 <.eb>
    1762:	00 00 00 

   //-- should never be here
   _TN_FATAL_ERROR("should never be here");
    1764:	00 40 da    	break     
    1766:	00 00 00    	nop       
}
    1768:	4f 07 78    	mov.w     [--w15], w14
    176a:	4f 06 be    	mov.d     [--w15], w12
    176c:	4f 05 be    	mov.d     [--w15], w10
    176e:	4f 04 be    	mov.d     [--w15], w8
    1770:	6f 00 b1    	sub.w     #0x6, w15
    1772:	00 00 06    	return    
Disassembly of section .text.tn_mutex_lock:

00001774 <_tn_mutex_lock>:
/*
 * See comments in the header file (tn_mutex.h)
 */
enum TN_RCode tn_mutex_lock(struct TN_Mutex *mutex, TN_TickCnt timeout)
{
    1774:	04 00 fa    	lnk       #0x4
    1776:	88 9f be    	mov.d     w8, [w15++]
    1778:	8a 1f 78    	mov.w     w10, [w15++]
    177a:	00 04 78    	mov.w     w0, w8
   enum TN_RCode rc = _check_param_generic(mutex);
    177c:	08 00 78    	mov.w     w8, w0
    177e:	b2 bf 9f    	mov.w     w2, [w15-10]
    1780:	c3 bf 9f    	mov.w     w3, [w15-8]
    1782:	f6 29 02    	call      0x29f6 <__check_param_generic>
    1784:	00 00 00 
    1786:	80 04 78    	mov.w     w0, w9
   TN_BOOL waited_for_mutex = TN_FALSE;

   if (rc != TN_RC_OK){
    1788:	09 00 e0    	cp0.w     w9
    178a:	37 00 3a    	bra       NZ, 0x17fa <.L98>
      //-- just return rc as it is
   } else if (!tn_is_task_context()){
    178c:	50 2b 02    	call      0x2b50 <.eb>
    178e:	00 00 00 
    1790:	00 00 e0    	cp0.w     w0
    1792:	32 00 32    	bra       Z, 0x17f8 <.L103>
      rc = TN_RC_WCONTEXT;
   } else {
      TN_INTSAVE_DATA;

      TN_INT_DIS_SAVE();
    1794:	8a 16 02    	call      0x168a <_tn_arch_sr_save_int_dis>
    1796:	00 00 00 
    1798:	00 05 78    	mov.w     w0, w10

      if (_tn_curr_run_task == mutex->holder){
    179a:	21 64 80    	mov.w     0xc84, w1
    179c:	08 08 90    	mov.w     [w8+16], w0
    179e:	3f b9 97    	mov.w     [w15-10], w2
    17a0:	cf b9 97    	mov.w     [w15-8], w3
    17a2:	80 8f 50    	sub.w     w1, w0, [w15]
    17a4:	04 00 3a    	bra       NZ, 0x17ae <.L99>
         //-- mutex is already locked by current task
         //   if recursive locking enabled (TN_MUTEX_REC), increment lock count,
         //   otherwise error is returned
         __mutex_lock_cnt_change(mutex, 1);
    17a6:	28 08 90    	mov.w     [w8+20], w0
    17a8:	00 00 e8    	inc.w     w0, w0
    17aa:	20 0c 98    	mov.w     w0, [w8+20]
    17ac:	0c 00 37    	bra       0x17c6 <.L106>

000017ae <.L99>:
         rc = __MUTEX_REC_LOCK_RETVAL;

      } else if (
    17ae:	78 02 90    	mov.w     [w8+14], w4
    17b0:	e1 0f 52    	sub.w     w4, #0x1, [w15]
    17b2:	04 00 3a    	bra       NZ, 0x17bc <.L101>
            mutex->protocol == TN_MUTEX_PROT_CEILING
            && _tn_curr_run_task->base_priority < mutex->ceil_priority
    17b4:	e1 12 90    	mov.w     [w1+44], w5
    17b6:	18 0a 90    	mov.w     [w8+18], w4
    17b8:	84 8f 52    	sub.w     w5, w4, [w15]
    17ba:	0f 00 35    	bra       LT, 0x17da <.L104>

000017bc <.L101>:
            )
      {
         //-- base priority of current task higher
         rc = TN_RC_ILLEGAL_USE;

      } else if (mutex->holder == TN_NULL){
    17bc:	00 00 e0    	cp0.w     w0
    17be:	05 00 3a    	bra       NZ, 0x17ca <.L102>
         //-- mutex is not locked, let's lock it

         //-- TODO: probably, we should add special flag to _mutex_do_lock,
         //   something like "other_tasks_can_wait", and set it to false here.
         //   When _mutex_do_lock() is called from _mutex_do_unlock(), this flag
         //   should be set to true there.
         //   _mutex_do_lock() should forward this flag to _find_max_priority_by_mutex(),
         //   and if that flag is false, _find_max_priority_by_mutex() should not
         //   call _find_max_blocked_priority().
         //   We could save about 30 cycles then. =)
         _mutex_do_lock(mutex, _tn_curr_run_task);
    17c0:	08 00 78    	mov.w     w8, w0
    17c2:	80 23 02    	call      0x2380 <.eb>
    17c4:	00 00 00 

000017c6 <.L106>:
    17c6:	00 04 eb    	clr.w     w8
    17c8:	0d 00 37    	bra       0x17e4 <.L100>

000017ca <.L102>:

      } else {
         //-- mutex is already locked

         if (timeout == 0){
    17ca:	e0 0f 51    	sub.w     w2, #0x0, [w15]
    17cc:	e0 8f 59    	subb.w    w3, #0x0, [w15]
    17ce:	08 00 32    	bra       Z, 0x17e0 <.L105>
            //-- in polling mode, just return TN_RC_TIMEOUT
            rc = TN_RC_TIMEOUT;
         } else {
            //-- timeout specified, so, wait until mutex is free or timeout expired
            _add_curr_task_to_mutex_wait_queue(mutex, timeout);
    17d0:	08 00 78    	mov.w     w8, w0
    17d2:	98 1f 02    	call      0x1f98 <.eb>
    17d4:	00 00 00 

            waited_for_mutex = TN_TRUE;
    17d6:	18 00 20    	mov.w     #0x1, w8
    17d8:	05 00 37    	bra       0x17e4 <.L100>

000017da <.L104>:
    17da:	00 04 eb    	clr.w     w8
    17dc:	a9 ff 2f    	mov.w     #0xfffa, w9
    17de:	02 00 37    	bra       0x17e4 <.L100>

000017e0 <.L105>:
    17e0:	00 04 eb    	clr.w     w8
    17e2:	80 84 eb    	setm.w    w9

000017e4 <.L100>:

            //-- rc will be set later to _tn_curr_run_task->task_wait_rc;
         }
      }

#if TN_DEBUG
      if (!_tn_need_context_switch() && waited_for_mutex){
         _TN_FATAL_ERROR("");
      }
#endif

      TN_INT_RESTORE();
    17e4:	0a 00 78    	mov.w     w10, w0
    17e6:	98 16 02    	call      0x1698 <_tn_arch_sr_restore>
    17e8:	00 00 00 
      _tn_context_switch_pend_if_needed();
    17ea:	e4 2b 02    	call      0x2be4 <.eb>
    17ec:	00 00 00 
      if (waited_for_mutex){
    17ee:	08 00 e0    	cp0.w     w8
    17f0:	04 00 32    	bra       Z, 0x17fa <.L98>
         //-- get wait result
         rc = _tn_curr_run_task->task_wait_rc;
    17f2:	20 64 80    	mov.w     0xc84, w0
    17f4:	a0 1c 90    	mov.w     [w0+52], w9
    17f6:	01 00 37    	bra       0x17fa <.L98>

000017f8 <.L103>:
    17f8:	d9 ff 2f    	mov.w     #0xfffd, w9

000017fa <.L98>:
      }
   }

   return rc;
}
    17fa:	09 00 78    	mov.w     w9, w0
    17fc:	4f 05 78    	mov.w     [--w15], w10
    17fe:	4f 04 be    	mov.d     [--w15], w8
    1800:	00 80 fa    	ulnk      
    1802:	00 00 06    	return    
Disassembly of section .text._tn_timers_tick_proceed:

00001804 <__tn_timers_tick_proceed>:
/**
 * See comments in the _tn_timer.h file.
 */
void _tn_timers_tick_proceed(void)
{
    1804:	88 9f be    	mov.d     w8, [w15++]
    1806:	8a 9f be    	mov.d     w10, [w15++]
   //-- first of all, increment system timer
   _tn_sys_time_count++;
    1808:	00 79 80    	mov.w     0xf20, w0
    180a:	11 79 80    	mov.w     0xf22, w1
    180c:	61 00 40    	add.w     w0, #0x1, w0
    180e:	e0 80 48    	addc.w    w1, #0x0, w1
    1810:	00 79 88    	mov.w     w0, 0xf20
    1812:	11 79 88    	mov.w     w1, 0xf22

   int tick_list_index = _TICK_LIST_INDEX(0);
    1814:	00 79 80    	mov.w     0xf20, w0
    1816:	11 79 80    	mov.w     0xf22, w1
    1818:	e7 04 60    	and.w     w0, #0x7, w9

   //-- interrupts should be disabled here
   _TN_BUG_ON( !TN_IS_INT_DISABLED() );

   if (tick_list_index == 0){
    181a:	23 00 3a    	bra       NZ, 0x1862 <.L11> <.eb>

0000181c <.bb>:
      //-- it happens each TN_TICK_LISTS_CNT-th system tick:
      //   now we should walk through all the timers in the "generic" timer
      //   list, decrement the timeout of each one by TN_TICK_LISTS_CNT,
      //   and if resulting timeout is less than TN_TICK_LISTS_CNT,
      //   then move that timer to the appropriate "tick" timer list.

      //-- handle "generic" timer list {{{
      {
         struct TN_Timer *timer;
         struct TN_Timer *tmp_timer;

         _tn_list_for_each_entry_safe(
    181c:	e0 ef 20    	mov.w     #0xefe, w0
    181e:	10 85 e9    	dec2.w    [w0], w10
    1820:	2a 04 90    	mov.w     [w10+4], w8
    1822:	08 84 e9    	dec2.w    w8, w8
    1824:	1a 00 37    	bra       0x185a <.L12>

00001826 <.L14>:
               timer, struct TN_Timer, tmp_timer,
               &_tn_timer_list__gen, timer_queue
               )
         {

            //-- timeout value should always be >= TN_TICK_LISTS_CNT here.
            //   And it should never be TN_WAIT_INFINITE.
            _TN_BUG_ON(0
                  || timer->timeout_cur == TN_WAIT_INFINITE 
                  || timer->timeout_cur < TN_TICK_LISTS_CNT
                  );

            timer->timeout_cur -= TN_TICK_LISTS_CNT;
    1826:	5a 00 90    	mov.w     [w10+10], w0
    1828:	ea 00 90    	mov.w     [w10+12], w1
    182a:	68 00 50    	sub.w     w0, #0x8, w0
    182c:	e0 80 58    	subb.w    w1, #0x0, w1
    182e:	50 05 98    	mov.w     w0, [w10+10]
    1830:	61 05 98    	mov.w     w1, [w10+12]

            if (timer->timeout_cur < TN_TICK_LISTS_CNT){
    1832:	e7 0f 50    	sub.w     w0, #0x7, [w15]
    1834:	e0 8f 58    	subb.w    w1, #0x0, [w15]
    1836:	0e 00 3e    	bra       GTU, 0x1854 <.L13>
               //-- it's time to move this timer to the "tick" list
               _tn_list_remove_entry(&(timer->timer_queue));
    1838:	0b 00 78    	mov.w     w11, w0
    183a:	3e 2c 02    	call      0x2c3e <.eb>
    183c:	00 00 00 
               _tn_list_add_tail(
    183e:	00 79 80    	mov.w     0xf20, w0
    1840:	11 79 80    	mov.w     0xf22, w1
    1842:	5a 01 90    	mov.w     [w10+10], w2
    1844:	00 00 41    	add.w     w2, w0, w0
    1846:	67 00 60    	and.w     w0, #0x7, w0
    1848:	42 00 dd    	sl.w      w0, #0x2, w0
    184a:	01 f0 20    	mov.w     #0xf00, w1
    184c:	01 00 40    	add.w     w0, w1, w0
    184e:	8b 00 78    	mov.w     w11, w1
    1850:	32 2c 02    	call      0x2c32 <.eb>
    1852:	00 00 00 

00001854 <.L13>:
    1854:	28 00 90    	mov.w     [w8+4], w0
    1856:	08 05 78    	mov.w     w8, w10
    1858:	00 84 e9    	dec2.w    w0, w8

0000185a <.L12>:
    185a:	8a 85 e8    	inc2.w    w10, w11
    185c:	c0 ef 20    	mov.w     #0xefc, w0
    185e:	80 8f 55    	sub.w     w11, w0, [w15]
    1860:	e2 ff 3a    	bra       NZ, 0x1826 <.L14>

00001862 <.L11>:
                     &_tn_timer_list__tick[_TICK_LIST_INDEX(timer->timeout_cur)],
                     &(timer->timer_queue)
                     );
            }
         }
      }
      //}}}
   }

   //-- it happens every system tick:
   //   we should walk through all the timers in the current "tick" timer list,
   //   and fire them all, unconditionally.

   //-- handle current "tick" timer list {{{
   {
      struct TN_Timer *timer;

      struct TN_ListItem *p_cur_timer_list = 
    1862:	42 4d dd    	sl.w      w9, #0x2, w10
    1864:	00 f0 20    	mov.w     #0xf00, w0
    1866:	00 05 45    	add.w     w10, w0, w10
         &_tn_timer_list__tick[ tick_list_index ];

      //-- now, p_cur_timer_list is a list of timers that we should
      //   fire NOW, unconditionally.

      //-- NOTE that we shouldn't use iterators like 
      //   `_tn_list_for_each_entry_safe()` here, because timers can be 
      //   removed from the list while we are iterating through it: 
      //   this may happen if user-provided function cancels timer which 
      //   is in the same list.
      //
      //   Although timers could be removed from the list, note that
      //   new timer can't be added to it
      //   (because timeout 0 is disallowed, and timer with timeout
      //   TN_TICK_LISTS_CNT is added to the "generic" list),
      //   see implementation details in the tn_timer.h file
      while (!_tn_list_is_empty(p_cur_timer_list)){
    1868:	0c 00 37    	bra       0x1882 <.L15>

0000186a <.L16>:
         timer = _tn_list_first_entry(
    186a:	42 48 dd    	sl.w      w9, #0x2, w0
    186c:	00 80 e8    	inc2.w    w0, w0
    186e:	01 f0 20    	mov.w     #0xf00, w1
    1870:	61 04 78    	mov.w     [w1+w0], w8
    1872:	08 84 e9    	dec2.w    w8, w8
               p_cur_timer_list, struct TN_Timer, timer_queue
               );

         //-- first of all, cancel timer, so that 
         //   callback function could start it again if it wants to.
         _tn_timer_cancel(timer);
    1874:	08 00 78    	mov.w     w8, w0
    1876:	aa 25 02    	call      0x25aa <.eb>
    1878:	00 00 00 

         //-- call user callback function
         timer->func(timer, timer->p_user_data);
    187a:	38 01 90    	mov.w     [w8+6], w2
    187c:	c8 00 90    	mov.w     [w8+8], w1
    187e:	08 00 78    	mov.w     w8, w0
    1880:	02 00 01    	call      w2

00001882 <.L15>:
    1882:	0a 00 78    	mov.w     w10, w0
    1884:	3c 2a 02    	call      0x2a3c <.eb>
    1886:	00 00 00 
    1888:	00 00 e0    	cp0.w     w0
    188a:	ef ff 32    	bra       Z, 0x186a <.L16>
      }

      _TN_BUG_ON( !_tn_list_is_empty(p_cur_timer_list) );
   }
   // }}}
}
    188c:	4f 05 be    	mov.d     [--w15], w10
    188e:	4f 04 be    	mov.d     [--w15], w8
    1890:	00 00 06    	return    
Disassembly of section .text:

00001892 <_idle_task_callback>:

//-- idle callback that is called periodically from idle task
void idle_task_callback (void)
{
}
    1892:	00 00 06    	return    

00001894 <_InitOs>:

//-- create first application task(s)
void InitOs(void)
{
   //-- task A performs complete application initialization,
   //   it's the first created application task
   tn_task_create(
    1894:	16 00 20    	mov.w     #0x1, w6
    1896:	80 02 eb    	clr.w     w5
    1898:	94 07 20    	mov.w     #0x79, w4
    189a:	03 a5 20    	mov.w     #0xa50, w3
    189c:	72 00 20    	mov.w     #0x7, w2
    189e:	81 6a 20    	mov.w     #0x6a8, w1
    18a0:	e0 89 20    	mov.w     #0x89e, w0
    18a2:	75 fd 37    	bra       0x138e <_tn_task_create> <.bb> <.bf> <.text.tn_task_create> <.eb> <.ef>

000018a4 <__T1Interrupt>:
    18a4:	80 1f 78    	mov.w     w0, [w15++]
    18a6:	81 1f 78    	mov.w     w1, [w15++]
    18a8:	00 0e 20    	mov.w     #0xe0, w0
    18aa:	42 00 b6    	and.w     0x42, WREG
    18ac:	45 00 de    	lsr.w     w0, #0x5, w0
    18ae:	64 00 e1    	cp.w      w0, #0x4
    18b0:	02 00 36    	bra       LEU, 0x18b6 <L11>
    18b2:	00 40 da    	break     
    18b4:	00 00 00    	nop       

000018b6 <L11>:
    18b6:	08 00 fc    	disi      #0x8
    18b8:	e0 7a 80    	mov.w     0xf5c, w0
    18ba:	20 00 e3    	cp.w      0x20
    18bc:	07 00 32    	bra       Z, 0x18cc <L12>
    18be:	01 01 80    	mov.w     0x20, w1
    18c0:	00 01 88    	mov.w     w0, 0x20
    18c2:	0f 00 78    	mov.w     w15, w0
    18c4:	df 7a 80    	mov.w     0xf5a, w15
    18c6:	80 1f 78    	mov.w     w0, [w15++]
    18c8:	81 1f 78    	mov.w     w1, [w15++]
    18ca:	02 00 37    	bra       0x18d0 <L21>

000018cc <L12>:
    18cc:	8f 1f 78    	mov.w     w15, [w15++]
    18ce:	20 00 f8    	push      0x20

000018d0 <L21>:
    18d0:	08 00 07    	rcall     0x18e2 <L13>
    18d2:	04 00 fc    	disi      #0x4
    18d4:	cf 00 78    	mov.w     [--w15], w1
    18d6:	4f 00 78    	mov.w     [--w15], w0
    18d8:	01 01 88    	mov.w     w1, 0x20
    18da:	80 07 78    	mov.w     w0, w15
    18dc:	cf 00 78    	mov.w     [--w15], w1
    18de:	4f 00 78    	mov.w     [--w15], w0
    18e0:	00 40 06    	retfie    

000018e2 <L13>:
    18e2:	10 02 80    	mov.w     0x42, w0
    18e4:	f0 ff 9f    	mov.b     w0, [w15-1]
    18e6:	36 00 f8    	push      0x36
    18e8:	80 9f be    	mov.d     w0, [w15++]
    18ea:	82 9f be    	mov.d     w2, [w15++]
    18ec:	84 9f be    	mov.d     w4, [w15++]
    18ee:	86 9f be    	mov.d     w6, [w15++]
    18f0:	34 00 f8    	push      0x34
    18f2:	00 00 20    	mov.w     #0x0, w0
    18f4:	a0 01 88    	mov.w     w0, 0x34

000018f6 <.bb>:
    18f6:	84 60 a9    	bclr.b    0x84, #0x3

000018f8 <.eb>:
    18f8:	b8 07 07    	rcall     0x286a <.eb> <.ef> <_tn_tick_int_processing> <.bb> <.bf> <.text.tn_tick_int_processing>
    18fa:	34 00 f9    	pop       0x34
    18fc:	4f 03 be    	mov.d     [--w15], w6
    18fe:	4f 02 be    	mov.d     [--w15], w4
    1900:	4f 01 be    	mov.d     [--w15], w2
    1902:	4f 00 be    	mov.d     [--w15], w0
    1904:	36 00 f9    	pop       0x36
    1906:	00 40 06    	retfie    

00001908 <_main>:
         &task_HeaterPid,           //-- task structure
         task_HeaterPid_body,       //-- task body function
         TASK_A_PRIORITY,           //-- task priority
         task_HeaterPid_stack,              //-- task stack
         TASK_HEATERPID_STK_SIZE,   //-- task stack size (in words)
         TN_NULL,                   //-- task function parameter
         TN_TASK_CREATE_OPT_START   //-- creation option
         );
}

int main(void)
{
   //-- unconditionally disable system interrupts
   tn_arch_int_dis();
    1908:	ce fe 07    	rcall     0x16a6 <_tn_arch_int_dis>

   //-- init hardware
   hw_init();
    190a:	89 04 07    	rcall     0x221e <.eb> <.ef> <_hw_init> <.bb> <.bf> <.text>

   //-- call to tn_sys_start() never returns
   tn_sys_start(
    190c:	25 89 21    	mov.w     #0x1892, w5
    190e:	44 89 21    	mov.w     #0x1894, w4
    1910:	93 05 20    	mov.w     #0x59, w3
    1912:	e2 99 20    	mov.w     #0x99e, w2
    1914:	91 03 20    	mov.w     #0x39, w1
    1916:	c0 92 20    	mov.w     #0x92c, w0
    1918:	dc fe 07    	rcall     0x16d2 <_tn_sys_start> <.bb> <.bf> <.text.tn_sys_start>
         idle_task_stack,
         IDLE_TASK_STACK_SIZE,
         interrupt_stack,
         INTERRUPT_STACK_SIZE,
         InitOs,
         idle_task_callback
         );

   //-- unreachable
   return 1;
}
    191a:	10 00 05    	retlw.w   #0x1, w0
Disassembly of section .text.tn_task_terminate:

0000191c <_tn_task_terminate>:
/*
 * See comments in the header file (tn_tasks.h)
 */
enum TN_RCode tn_task_terminate(struct TN_Task *task)
{
    191c:	88 9f be    	mov.d     w8, [w15++]
    191e:	8a 9f be    	mov.d     w10, [w15++]
    1920:	00 04 78    	mov.w     w0, w8
   enum TN_RCode rc = _check_param_generic(task);
    1922:	08 00 78    	mov.w     w8, w0
    1924:	96 29 02    	call      0x2996 <.eb>
    1926:	00 00 00 
    1928:	80 04 78    	mov.w     w0, w9
	 
   if (rc != TN_RC_OK){
    192a:	09 00 e0    	cp0.w     w9
    192c:	38 00 3a    	bra       NZ, 0x199e <.L89>
      //-- just return rc as it is
   } else if (!tn_is_task_context()){
    192e:	c0 2a 02    	call      0x2ac0 <.eb>
    1930:	00 00 00 
    1932:	00 00 e0    	cp0.w     w0
    1934:	33 00 32    	bra       Z, 0x199c <.L94>
      rc = TN_RC_WCONTEXT;
   } else {
      TN_INTSAVE_DATA;

      TN_INT_DIS_SAVE();
    1936:	8a 16 02    	call      0x168a <_tn_arch_sr_save_int_dis>
    1938:	00 00 00 
    193a:	00 05 78    	mov.w     w0, w10

      if (_tn_task_is_dormant(task)){
         //-- The task is already terminated
         rc = TN_RC_WSTATE;
      } else if (_tn_curr_run_task == task){
         //-- Cannot terminate currently running task
         //   (use tn_task_exit() instead)
         rc = TN_RC_WCONTEXT;
      } else {

         if (_tn_task_is_runnable(task)){
            //-- if task is runnable, we must clear runnable state
            //   before terminating the task
            _tn_task_clear_runnable(task);
         } else if (_tn_task_is_waiting(task)){
            //-- if task is waiting, we must clear waiting state
            //   before terminating the task.
            //   No matter what waiting result code we specify:
            //   nobody is going to read it.
            _tn_task_clear_waiting(
                  task,
                  TN_RC_OK    //-- doesn't matter: nobody will read it
                  );
         }

         if (_tn_task_is_suspended(task)){
            //-- if task is suspended, we must clear suspended state
            //   before terminating the task
            _tn_task_clear_suspended(task);
         }

         //-- eventually, terminate the task
         _task_terminate(task);
      }

      TN_INT_RESTORE();
      _tn_context_switch_pend_if_needed();

   }
   return rc;
}

/*
 * See comments in the header file (tn_tasks.h)
 */
enum TN_RCode tn_task_delete(struct TN_Task *task)
{
   enum TN_RCode rc = _check_param_generic(task);

   if (rc != TN_RC_OK){
      //-- just return rc as it is
   } else if (!tn_is_task_context()){
      rc = TN_RC_WCONTEXT;
   } else {
      TN_INTSAVE_DATA;

      TN_INT_DIS_SAVE();
      rc = _task_delete(task);
      TN_INT_RESTORE();

   }
   return rc;
}

/*
 * See comments in the header file (tn_tasks.h)
 */
enum TN_RCode tn_task_state_get(
      struct TN_Task *task,
      enum TN_TaskState *p_state
      )
{
   enum TN_RCode rc = _check_param_generic(task);
   if (rc != TN_RC_OK){
      //-- just return rc as it is
   } else if (!tn_is_task_context()){
      rc = TN_RC_WCONTEXT;
   } else {
      TN_INTSAVE_DATA;

      TN_INT_DIS_SAVE();
      *p_state = task->task_state;
      TN_INT_RESTORE();
   }
   return rc;
}

/*
 * See comments in the header file (tn_tasks.h)
 */
enum TN_RCode tn_task_change_priority(struct TN_Task *task, int new_priority)
{
   enum TN_RCode rc = _check_param_generic(task);

   if (rc != TN_RC_OK){
      //-- just return rc as it is
   } else if (new_priority < 0 || new_priority >= (TN_PRIORITIES_CNT - 1)){
      rc = TN_RC_WPARAM;
   } else if (!tn_is_task_context()){
      rc = TN_RC_WCONTEXT;
   } else {
      TN_INTSAVE_DATA;

      TN_INT_DIS_SAVE();

      if (new_priority == 0){
         new_priority = task->base_priority;
      }

      rc = TN_RC_OK;

      if (_tn_task_is_dormant(task)){
         rc = TN_RC_WSTATE;
      } else {
         _tn_change_task_priority(task, new_priority);
      }

      TN_INT_RESTORE();
      _tn_context_switch_pend_if_needed();
   }
   return rc;
}

#if TN_PROFILER
enum TN_RCode tn_task_profiler_timing_get(
      const struct TN_Task *task,
      struct TN_TaskTiming *tgt
      )
{
   enum TN_RCode rc = _check_param_generic(task);

   if (rc != TN_RC_OK){
      //-- just return rc as it is
   } else {
      int sr_saved;
      sr_saved = tn_arch_sr_save_int_dis();

      //-- just copy timing data from task structure
      //   to the user-provided location
      memcpy(tgt, &task->profiler.timing, sizeof(*tgt));

      tn_arch_sr_restore(sr_saved);
   }
   return rc;
}
#endif




/*******************************************************************************
 *    INTERNAL TNKERNEL FUNCTIONS
 ******************************************************************************/

/**
 * See comment in the _tn_tasks.h file
 */
void _tn_task_set_runnable(struct TN_Task * task)
{
#if TN_DEBUG
   //-- task_state should be NONE here
   if (task->task_state != TN_TASK_STATE_NONE){
      _TN_FATAL_ERROR("");
   }
#endif

   int priority;

   priority          = task->priority;
   task->task_state  |= TN_TASK_STATE_RUNNABLE;

   //-- Add the task to the end of 'ready queue' for the current priority
   _add_entry_to_ready_queue(&(task->task_queue), priority);

   //-- less value - greater priority, so '<' operation is used here
   if (priority < _tn_next_task_to_run->priority){
      _tn_next_task_to_run = task;
   }
}

/**
 * See comment in the _tn_tasks.h file
 */
void _tn_task_clear_runnable(struct TN_Task *task)
{
#if TN_DEBUG
   //-- task_state should be exactly TN_TASK_STATE_RUNNABLE here
   if (task->task_state != TN_TASK_STATE_RUNNABLE){
      _TN_FATAL_ERROR("");
   }

   if (task == &_tn_idle_task){
      //-- idle task should always be runnable
      _TN_FATAL_ERROR("idle task should always be runnable");
   }
#endif

   //TN_BOOL ret = TN_FALSE;

   int priority;
   priority = task->priority;

   //-- remove runnable state
   task->task_state &= ~TN_TASK_STATE_RUNNABLE;

   //-- remove the curr task from any queue (now - from ready queue)
   if (_remove_entry_from_ready_queue(&(task->task_queue), priority)){
      //-- No ready tasks for the curr priority

      //-- Find highest priority ready to run -
      //   at least, lowest-priority bit must be set for the idle task
      //   (the exact bit position actually depends on TN_PRIORITIES_CNT value)
      _find_next_task_to_run();

   } else {
      //-- There are 'ready to run' task(s) for the curr priority

      if (_tn_next_task_to_run == task){
         //-- the task that just became non-runnable was the "next task to run",
         //   so we should select new next task to run
         _tn_next_task_to_run = _tn_get_task_by_tsk_queue(
               _tn_tasks_ready_list[priority].next
               );

         //-- _tn_next_task_to_run was just altered, so, we should return TN_TRUE
      }
   }

   //-- and reset task's queue
   _tn_list_reset(&(task->task_queue));

}

void _tn_task_set_waiting(
      struct TN_Task *task,
      struct TN_ListItem *wait_que,
      enum TN_WaitReason wait_reason,
      TN_TickCnt timeout
      )
{
#if TN_DEBUG
   //-- only SUSPEND bit is allowed here
   if (task->task_state & ~(TN_TASK_STATE_SUSPEND)){
      _TN_FATAL_ERROR("");
   } else if (timeout == 0){
      _TN_FATAL_ERROR("");
   } else if (_tn_timer_is_active(&task->timer)){
      _TN_FATAL_ERROR("");
   }

#endif

   task->task_state       |= TN_TASK_STATE_WAIT;
   task->task_wait_reason = wait_reason;

   task->waited           = TN_TRUE;

   //--- Add to the wait queue  - FIFO

   if (wait_que != TN_NULL){
      _tn_list_add_tail(wait_que, &(task->task_queue));
      task->pwait_queue = wait_que;
   } else {
      //-- NOTE: we don't need to reset task_queue because
      //   it is already reset in _tn_task_clear_runnable().
   }

   //-- Add to the timers queue, if timeout is neither 0 nor `TN_WAIT_INFINITE`.
   _tn_timer_start(&task->timer, timeout);
}

/**
 * See comment in the _tn_tasks.h file
 */
void _tn_task_clear_waiting(struct TN_Task *task, enum TN_RCode wait_rc)
{
#if TN_DEBUG
   //-- only WAIT and SUSPEND bits are allowed here,
   //   and WAIT bit must be set
   if (
              (task->task_state & ~(TN_TASK_STATE_WAIT | TN_TASK_STATE_SUSPEND))
         || (!(task->task_state &  (TN_TASK_STATE_WAIT)                    ))
      )
   {
      _TN_FATAL_ERROR("");
   }

   if (_tn_list_is_empty(&task->task_queue) != (task->pwait_queue == TN_NULL)){
      _TN_FATAL_ERROR("task_queue and pwait_queue are out of sync");
   }

#endif

   //-- NOTE: we should remove task from wait_queue before calling
   //   _on_task_wait_complete(), because _find_max_blocked_priority()
   //   in tn_mutex.c checks for all tasks in mutex's wait_queue to
   //   get max blocked priority

   //-- NOTE: we don't care here whether task is contained in any wait_queue,
   //   because even if it isn't, _tn_list_remove_entry() on empty list
   //   does just nothing.
   _tn_list_remove_entry(&task->task_queue);
   //-- and reset task's queue
   _tn_list_reset(&(task->task_queue));

   //-- handle current wait_reason: say, for MUTEX_I, we should
   //   handle priorities of other involved tasks.
   _on_task_wait_complete(task);

   task->pwait_queue  = TN_NULL;
   task->task_wait_rc = wait_rc;

   //-- if timer is active (i.e. task waits for timeout),
   //   cancel that timer
   _tn_timer_cancel(&task->timer);

   //-- remove WAIT state
   task->task_state &= ~TN_TASK_STATE_WAIT;

   //-- Clear wait reason
   task->task_wait_reason = TN_WAIT_REASON_NONE;
}

void _tn_task_set_suspended(struct TN_Task *task)
{
#if TN_DEBUG
   //-- only WAIT bit is allowed here
   if (task->task_state & ~(TN_TASK_STATE_WAIT)){
      _TN_FATAL_ERROR("");
   }
#endif

   task->task_state |= TN_TASK_STATE_SUSPEND;
}

void _tn_task_clear_suspended(struct TN_Task *task)
{
#if TN_DEBUG
   //-- only WAIT and SUSPEND bits are allowed here,
   //   and SUSPEND bit must be set
   if (
         (task->task_state & ~(TN_TASK_STATE_WAIT | TN_TASK_STATE_SUSPEND))
         || (!(task->task_state &                   (TN_TASK_STATE_SUSPEND)))
      )
   {
      _TN_FATAL_ERROR("");
   }
#endif

   task->task_state &= ~TN_TASK_STATE_SUSPEND;
}

void _tn_task_set_dormant(struct TN_Task* task)
{

#if TN_DEBUG
   if (task->task_state != TN_TASK_STATE_NONE){
      _TN_FATAL_ERROR("");
   } else if (!_tn_list_is_empty(&task->mutex_queue)){
      _TN_FATAL_ERROR("");
   } else if (!_tn_list_is_empty(&task->deadlock_list)){
      _TN_FATAL_ERROR("");
   }
#endif

   task->priority    = task->base_priority;      //-- Task curr priority
   task->task_state  |= TN_TASK_STATE_DORMANT;   //-- Task state

   task->tslice_count  = 0;
}

void _tn_task_clear_dormant(struct TN_Task *task)
{
#if TN_DEBUG
   //-- task_state should be exactly TN_TASK_STATE_DORMANT here
   if (task->task_state != TN_TASK_STATE_DORMANT){
      _TN_FATAL_ERROR("");
   }
#endif

   //--- Init task stack, save pointer to task top of stack,
   //    when not running
   task->stack_cur_pt = _tn_arch_stack_init(
         task->task_func_addr,
         task->stack_low_addr,
         task->stack_high_addr,
         task->task_func_param
         );

   task->task_state &= ~TN_TASK_STATE_DORMANT;


#if TN_PROFILER
   //-- If profiler is present, set last tick count
   //   to current tick count value
   task->profiler.last_tick_cnt = _tn_timer_sys_time_get();
#endif
}

/**
 * See comment in the _tn_tasks.h file
 */
enum TN_RCode _tn_task_activate(struct TN_Task *task)
{
   enum TN_RCode rc = TN_RC_OK;

   if (_tn_task_is_dormant(task)){
      _tn_task_clear_dormant(task);
      _tn_task_set_runnable(task);
   } else {
      rc = TN_RC_WSTATE;
   }

   return rc;
}

/**
 * See comment in the _tn_tasks.h file
 */
TN_BOOL _tn_task_first_wait_complete(
      struct TN_ListItem           *wait_queue,
      enum TN_RCode                 wait_rc,
      _TN_CBBeforeTaskWaitComplete *callback,
      void                         *user_data_1,
      void                         *user_data_2
      )
{
   TN_BOOL ret = TN_FALSE;

   if (!(_tn_list_is_empty(wait_queue))){
      struct TN_Task *task;
      //-- there are tasks in the wait queue, so, wake up the first one

      //-- get first task from the wait_queue
      task = _tn_list_first_entry(wait_queue, struct TN_Task, task_queue);

      //-- call provided callback (if any)
      if (callback != TN_NULL){
         callback(task, user_data_1, user_data_2);
      }

      //-- wake task up
      _tn_task_wait_complete(task, wait_rc);

      //-- indicate that some task has been woken up
      ret = TN_TRUE;
   }

   return ret;
}


/**
 * See comment in the _tn_tasks.h file
 */
void _tn_change_task_priority(struct TN_Task *task, int new_priority)
{
   if (_tn_task_is_runnable(task)){
      _tn_change_running_task_priority(task, new_priority);
   } else {
      task->priority = new_priority;
   }
}

/**
 * See comment in the _tn_tasks.h file
 */
void _tn_change_running_task_priority(struct TN_Task *task, int new_priority)
{
   if (!_tn_task_is_runnable(task)){
      _TN_FATAL_ERROR("_tn_change_running_task_priority called for non-runnable task");
   }

   //-- remove curr task from any (wait/ready) queue
   _remove_entry_from_ready_queue(&(task->task_queue), task->priority);

   task->priority = new_priority;

   //-- Add task to the end of ready queue for current priority
   _add_entry_to_ready_queue(&(task->task_queue), new_priority);

   _find_next_task_to_run();
}

#if 0
/**
 * See comment in the _tn_tasks.h file
 */
void _tn_task_set_last_rc_if_error(enum TN_RCode rc)
{
   if (rc != TN_RC_OK){
      TN_INTSAVE_DATA;

      TN_INT_DIS_SAVE();
      _tn_curr_run_task->last_rc = rc;
      TN_INT_RESTORE();
   }
}
#endif

#if TN_USE_MUTEXES
/**
 * See comment in the _tn_tasks.h file
 */
TN_BOOL _tn_is_mutex_locked_by_task(struct TN_Task *task, struct TN_Mutex *mutex)
{
   TN_BOOL ret = TN_FALSE;

   struct TN_Mutex *tmp_mutex;
   _tn_list_for_each_entry(
         tmp_mutex, struct TN_Mutex, &(task->mutex_queue), mutex_queue
         )
   {
      if (tmp_mutex == mutex){
         ret = TN_TRUE;
         break;
      }
   }

   return ret;
}

#endif

/*
 * See comment in the _tn_tasks.h file
 */
void _tn_task_exit_nodelete(void)
{
   tn_task_exit((enum TN_TaskExitOpt)(0));
}



#if !defined(_TN_ARCH_STACK_DIR)
#  error _TN_ARCH_STACK_DIR is not defined
#endif

#if (_TN_ARCH_STACK_DIR == _TN_ARCH_STACK_DIR__ASC)
//-- full ascending stack {{{

/*
 * See comments in the file _tn_sys.h
 */
TN_UWord *_tn_task_stack_end_get(
      struct TN_Task *task
      )
{
   return task->stack_high_addr;
}
    193c:	88 1d 90    	mov.w     [w8+48], w11
    193e:	0b 00 78    	mov.w     w11, w0
    1940:	aa 2c 02    	call      0x2caa <.eb>
    1942:	00 00 00 
    1944:	00 00 e0    	cp0.w     w0
    1946:	21 00 3a    	bra       NZ, 0x198a <.L95>
    1948:	20 64 80    	mov.w     0xc84, w0
    194a:	88 0f 50    	sub.w     w0, w8, [w15]
    194c:	20 00 32    	bra       Z, 0x198e <.L96>
    194e:	0b 00 78    	mov.w     w11, w0
    1950:	20 2d 02    	call      0x2d20 <__tn_task_is_runnable.clone.0>
    1952:	00 00 00 
    1954:	00 00 e0    	cp0.w     w0
    1956:	04 00 32    	bra       Z, 0x1960 <.L91>
    1958:	08 00 78    	mov.w     w8, w0
    195a:	ca 1d 02    	call      0x1dca <.eb>
    195c:	00 00 00 
    195e:	09 00 37    	bra       0x1972 <.L92>

00001960 <.L91>:
    1960:	0b 00 78    	mov.w     w11, w0
    1962:	9e 2c 02    	call      0x2c9e <.eb>
    1964:	00 00 00 
    1966:	00 00 e0    	cp0.w     w0
    1968:	04 00 32    	bra       Z, 0x1972 <.L92>
    196a:	80 00 eb    	clr.w     w1
    196c:	08 00 78    	mov.w     w8, w0
    196e:	e8 21 02    	call      0x21e8 <.eb>
    1970:	00 00 00 

00001972 <.L92>:
    1972:	08 18 90    	mov.w     [w8+48], w0
    1974:	a4 2c 02    	call      0x2ca4 <.eb>
    1976:	00 00 00 
    1978:	00 00 e0    	cp0.w     w0
    197a:	03 00 32    	bra       Z, 0x1982 <.L93>
    197c:	08 00 78    	mov.w     w8, w0
    197e:	72 2c 02    	call      0x2c72 <.eb>
    1980:	00 00 00 

00001982 <.L93>:
    1982:	08 00 78    	mov.w     w8, w0
    1984:	52 2a 02    	call      0x2a52 <.eb>
    1986:	00 00 00 
    1988:	03 00 37    	bra       0x1990 <.L90>

0000198a <.L95>:
    198a:	c9 ff 2f    	mov.w     #0xfffc, w9
    198c:	01 00 37    	bra       0x1990 <.L90>

0000198e <.L96>:
    198e:	d9 ff 2f    	mov.w     #0xfffd, w9

00001990 <.L90>:
    1990:	0a 00 78    	mov.w     w10, w0
    1992:	98 16 02    	call      0x1698 <_tn_arch_sr_restore>
    1994:	00 00 00 
    1996:	90 2b 02    	call      0x2b90 <.eb>
    1998:	00 00 00 
    199a:	01 00 37    	bra       0x199e <.L89>

0000199c <.L94>:
    199c:	d9 ff 2f    	mov.w     #0xfffd, w9

0000199e <.L89>:
    199e:	09 00 78    	mov.w     w9, w0
    19a0:	4f 05 be    	mov.d     [--w15], w10
    19a2:	4f 04 be    	mov.d     [--w15], w8
    19a4:	00 00 06    	return    
Disassembly of section .text.tn_task_suspend:

000019a6 <_tn_task_suspend>:
/*
 * See comments in the header file (tn_tasks.h)
 */
enum TN_RCode tn_task_suspend(struct TN_Task *task)
{
    19a6:	88 9f be    	mov.d     w8, [w15++]
    19a8:	8a 9f be    	mov.d     w10, [w15++]
    19aa:	80 04 78    	mov.w     w0, w9
   enum TN_RCode rc = _check_param_generic(task);
    19ac:	09 00 78    	mov.w     w9, w0
    19ae:	96 29 02    	call      0x2996 <.eb>
    19b0:	00 00 00 
    19b2:	00 04 78    	mov.w     w0, w8

   if (rc != TN_RC_OK){
    19b4:	08 00 e0    	cp0.w     w8
    19b6:	26 00 3a    	bra       NZ, 0x1a04 <.L74>
      //-- just return rc as it is
   } else if (!tn_is_task_context()){
    19b8:	c0 2a 02    	call      0x2ac0 <.eb>
    19ba:	00 00 00 
    19bc:	00 00 e0    	cp0.w     w0
    19be:	21 00 32    	bra       Z, 0x1a02 <.L77>
      rc = TN_RC_WCONTEXT;
   } else {
      TN_INTSAVE_DATA;

      TN_INT_DIS_SAVE();
    19c0:	8a 16 02    	call      0x168a <_tn_arch_sr_save_int_dis>
    19c2:	00 00 00 
    19c4:	80 05 78    	mov.w     w0, w11

      if (_tn_task_is_suspended(task) || _tn_task_is_dormant(task)){
         //-- task is already suspended, or it is dormant;
         //   in either case, the state is wrong for suspending.
         rc = TN_RC_WSTATE;
      } else {

         //-- if task is runnable, clear runnable state.
         //   Note: it might be waiting instead of runnable: then,
         //   don't do anything with 'waiting' state: it is legal
         //   for task to be in waiting + suspended state.
         //   (TN_TASK_STATE_WAITSUSP)
         if (_tn_task_is_runnable(task)){
            _tn_task_clear_runnable(task);
         }

         //-- set suspended state
         _tn_task_set_suspended(task);

      }

      TN_INT_RESTORE();
      _tn_context_switch_pend_if_needed();

   }
   return rc;
}

/*
 * See comments in the header file (tn_tasks.h)
 */
enum TN_RCode tn_task_resume(struct TN_Task *task)
{
   enum TN_RCode rc = _check_param_generic(task);

   if (rc != TN_RC_OK){
      //-- just return rc as it is
   } else if (!tn_is_task_context()){
      rc = TN_RC_WCONTEXT;
   } else {
      TN_INTSAVE_DATA;

      TN_INT_DIS_SAVE();

      if (!_tn_task_is_suspended(task)){
         //-- task isn't suspended; this is wrong state.
         rc = TN_RC_WSTATE;
      } else {

         //-- clear suspended state
         _tn_task_clear_suspended(task);

         if (!_tn_task_is_waiting(task)){
            //-- The task is not in the WAIT-SUSPEND state,
            //   so we need to make it runnable and probably switch context
            _tn_task_set_runnable(task);
         }

      }

      TN_INT_RESTORE();
      _tn_context_switch_pend_if_needed();

   }
   return rc;

}

/*
 * See comments in the header file (tn_tasks.h)
 */
enum TN_RCode tn_task_sleep(TN_TickCnt timeout)
{
   enum TN_RCode rc;

   if (timeout == 0){
      rc = TN_RC_TIMEOUT;
   } else if (!tn_is_task_context()){
      rc = TN_RC_WCONTEXT;
   } else {
      TN_INTSAVE_DATA;

      TN_INT_DIS_SAVE();

      //-- put task to wait with reason SLEEP and without wait queue.
      _tn_task_curr_to_wait_action(TN_NULL, TN_WAIT_REASON_SLEEP, timeout);

      TN_INT_RESTORE();
      _tn_context_switch_pend_if_needed();
      rc = _tn_curr_run_task->task_wait_rc;

   }

   return rc;
}

/*
 * See comments in the header file (tn_tasks.h)
 */
enum TN_RCode tn_task_wakeup(struct TN_Task *task)
{
   return _task_job_perform(task, _task_wakeup);
}

/*
 * See comments in the header file (tn_tasks.h)
 */
enum TN_RCode tn_task_iwakeup(struct TN_Task *task)
{
   return _task_job_iperform(task, _task_wakeup);
}

/*
 * See comments in the header file (tn_tasks.h)
 */
enum TN_RCode tn_task_activate(struct TN_Task *task)
{
   return _task_job_perform(task, _tn_task_activate);
}

/*
 * See comments in the header file (tn_tasks.h)
 */
enum TN_RCode tn_task_iactivate(struct TN_Task *task)
{
   return _task_job_iperform(task, _tn_task_activate);
}

/*
 * See comments in the header file (tn_tasks.h)
 */
enum TN_RCode tn_task_release_wait(struct TN_Task *task)
{
   return _task_job_perform(task, _task_release_wait);
}

/*
 * See comments in the header file (tn_tasks.h)
 */
enum TN_RCode tn_task_irelease_wait(struct TN_Task *task)
{
   return _task_job_iperform(task, _task_release_wait);
}

/*
 * See comments in the header file (tn_tasks.h)
 */
void tn_task_exit(enum TN_TaskExitOpt opts)
{
   struct TN_Task *task;
	 
   if (!tn_is_task_context()){
      //-- do nothing, just return
   } else {

      //-- here, we unconditionally disable interrupts:
      //   this function never returns, and interrupt status is restored
      //   from different task's stack inside 
      //   `_tn_arch_context_switch_now_nosave()` call.
      tn_arch_int_dis();

      task = _tn_curr_run_task;

      //-- clear runnable state of currently running task,
      //   and terminate it

      _tn_task_clear_runnable(task);
      _task_terminate(task);

      if ((opts & TN_TASK_EXIT_OPT_DELETE)){
         //-- after exiting from task, we should delete it as well
         //   (because appropriate flag was set)
         _task_delete(task);
      }

      //-- interrupts will be enabled inside _tn_arch_context_switch_now_nosave()
      _tn_arch_context_switch_now_nosave();  
   }

   return;
}

/*
 * See comments in the header file (tn_tasks.h)
 */
enum TN_RCode tn_task_terminate(struct TN_Task *task)
{
   enum TN_RCode rc = _check_param_generic(task);
	 
   if (rc != TN_RC_OK){
      //-- just return rc as it is
   } else if (!tn_is_task_context()){
      rc = TN_RC_WCONTEXT;
   } else {
      TN_INTSAVE_DATA;

      TN_INT_DIS_SAVE();

      if (_tn_task_is_dormant(task)){
         //-- The task is already terminated
         rc = TN_RC_WSTATE;
      } else if (_tn_curr_run_task == task){
         //-- Cannot terminate currently running task
         //   (use tn_task_exit() instead)
         rc = TN_RC_WCONTEXT;
      } else {

         if (_tn_task_is_runnable(task)){
            //-- if task is runnable, we must clear runnable state
            //   before terminating the task
            _tn_task_clear_runnable(task);
         } else if (_tn_task_is_waiting(task)){
            //-- if task is waiting, we must clear waiting state
            //   before terminating the task.
            //   No matter what waiting result code we specify:
            //   nobody is going to read it.
            _tn_task_clear_waiting(
                  task,
                  TN_RC_OK    //-- doesn't matter: nobody will read it
                  );
         }

         if (_tn_task_is_suspended(task)){
            //-- if task is suspended, we must clear suspended state
            //   before terminating the task
            _tn_task_clear_suspended(task);
         }

         //-- eventually, terminate the task
         _task_terminate(task);
      }

      TN_INT_RESTORE();
      _tn_context_switch_pend_if_needed();

   }
   return rc;
}

/*
 * See comments in the header file (tn_tasks.h)
 */
enum TN_RCode tn_task_delete(struct TN_Task *task)
{
   enum TN_RCode rc = _check_param_generic(task);

   if (rc != TN_RC_OK){
      //-- just return rc as it is
   } else if (!tn_is_task_context()){
      rc = TN_RC_WCONTEXT;
   } else {
      TN_INTSAVE_DATA;

      TN_INT_DIS_SAVE();
      rc = _task_delete(task);
      TN_INT_RESTORE();

   }
   return rc;
}

/*
 * See comments in the header file (tn_tasks.h)
 */
enum TN_RCode tn_task_state_get(
      struct TN_Task *task,
      enum TN_TaskState *p_state
      )
{
   enum TN_RCode rc = _check_param_generic(task);
   if (rc != TN_RC_OK){
      //-- just return rc as it is
   } else if (!tn_is_task_context()){
      rc = TN_RC_WCONTEXT;
   } else {
      TN_INTSAVE_DATA;

      TN_INT_DIS_SAVE();
      *p_state = task->task_state;
      TN_INT_RESTORE();
   }
   return rc;
}

/*
 * See comments in the header file (tn_tasks.h)
 */
enum TN_RCode tn_task_change_priority(struct TN_Task *task, int new_priority)
{
   enum TN_RCode rc = _check_param_generic(task);

   if (rc != TN_RC_OK){
      //-- just return rc as it is
   } else if (new_priority < 0 || new_priority >= (TN_PRIORITIES_CNT - 1)){
      rc = TN_RC_WPARAM;
   } else if (!tn_is_task_context()){
      rc = TN_RC_WCONTEXT;
   } else {
      TN_INTSAVE_DATA;

      TN_INT_DIS_SAVE();

      if (new_priority == 0){
         new_priority = task->base_priority;
      }

      rc = TN_RC_OK;

      if (_tn_task_is_dormant(task)){
         rc = TN_RC_WSTATE;
      } else {
         _tn_change_task_priority(task, new_priority);
      }

      TN_INT_RESTORE();
      _tn_context_switch_pend_if_needed();
   }
   return rc;
}

#if TN_PROFILER
enum TN_RCode tn_task_profiler_timing_get(
      const struct TN_Task *task,
      struct TN_TaskTiming *tgt
      )
{
   enum TN_RCode rc = _check_param_generic(task);

   if (rc != TN_RC_OK){
      //-- just return rc as it is
   } else {
      int sr_saved;
      sr_saved = tn_arch_sr_save_int_dis();

      //-- just copy timing data from task structure
      //   to the user-provided location
      memcpy(tgt, &task->profiler.timing, sizeof(*tgt));

      tn_arch_sr_restore(sr_saved);
   }
   return rc;
}
#endif




/*******************************************************************************
 *    INTERNAL TNKERNEL FUNCTIONS
 ******************************************************************************/

/**
 * See comment in the _tn_tasks.h file
 */
void _tn_task_set_runnable(struct TN_Task * task)
{
#if TN_DEBUG
   //-- task_state should be NONE here
   if (task->task_state != TN_TASK_STATE_NONE){
      _TN_FATAL_ERROR("");
   }
#endif

   int priority;

   priority          = task->priority;
   task->task_state  |= TN_TASK_STATE_RUNNABLE;

   //-- Add the task to the end of 'ready queue' for the current priority
   _add_entry_to_ready_queue(&(task->task_queue), priority);

   //-- less value - greater priority, so '<' operation is used here
   if (priority < _tn_next_task_to_run->priority){
      _tn_next_task_to_run = task;
   }
}

/**
 * See comment in the _tn_tasks.h file
 */
void _tn_task_clear_runnable(struct TN_Task *task)
{
#if TN_DEBUG
   //-- task_state should be exactly TN_TASK_STATE_RUNNABLE here
   if (task->task_state != TN_TASK_STATE_RUNNABLE){
      _TN_FATAL_ERROR("");
   }

   if (task == &_tn_idle_task){
      //-- idle task should always be runnable
      _TN_FATAL_ERROR("idle task should always be runnable");
   }
#endif

   //TN_BOOL ret = TN_FALSE;

   int priority;
   priority = task->priority;

   //-- remove runnable state
   task->task_state &= ~TN_TASK_STATE_RUNNABLE;

   //-- remove the curr task from any queue (now - from ready queue)
   if (_remove_entry_from_ready_queue(&(task->task_queue), priority)){
      //-- No ready tasks for the curr priority

      //-- Find highest priority ready to run -
      //   at least, lowest-priority bit must be set for the idle task
      //   (the exact bit position actually depends on TN_PRIORITIES_CNT value)
      _find_next_task_to_run();

   } else {
      //-- There are 'ready to run' task(s) for the curr priority

      if (_tn_next_task_to_run == task){
         //-- the task that just became non-runnable was the "next task to run",
         //   so we should select new next task to run
         _tn_next_task_to_run = _tn_get_task_by_tsk_queue(
               _tn_tasks_ready_list[priority].next
               );

         //-- _tn_next_task_to_run was just altered, so, we should return TN_TRUE
      }
   }

   //-- and reset task's queue
   _tn_list_reset(&(task->task_queue));

}

void _tn_task_set_waiting(
      struct TN_Task *task,
      struct TN_ListItem *wait_que,
      enum TN_WaitReason wait_reason,
      TN_TickCnt timeout
      )
{
#if TN_DEBUG
   //-- only SUSPEND bit is allowed here
   if (task->task_state & ~(TN_TASK_STATE_SUSPEND)){
      _TN_FATAL_ERROR("");
   } else if (timeout == 0){
      _TN_FATAL_ERROR("");
   } else if (_tn_timer_is_active(&task->timer)){
      _TN_FATAL_ERROR("");
   }

#endif

   task->task_state       |= TN_TASK_STATE_WAIT;
   task->task_wait_reason = wait_reason;

   task->waited           = TN_TRUE;

   //--- Add to the wait queue  - FIFO

   if (wait_que != TN_NULL){
      _tn_list_add_tail(wait_que, &(task->task_queue));
      task->pwait_queue = wait_que;
   } else {
      //-- NOTE: we don't need to reset task_queue because
      //   it is already reset in _tn_task_clear_runnable().
   }

   //-- Add to the timers queue, if timeout is neither 0 nor `TN_WAIT_INFINITE`.
   _tn_timer_start(&task->timer, timeout);
}

/**
 * See comment in the _tn_tasks.h file
 */
void _tn_task_clear_waiting(struct TN_Task *task, enum TN_RCode wait_rc)
{
#if TN_DEBUG
   //-- only WAIT and SUSPEND bits are allowed here,
   //   and WAIT bit must be set
   if (
              (task->task_state & ~(TN_TASK_STATE_WAIT | TN_TASK_STATE_SUSPEND))
         || (!(task->task_state &  (TN_TASK_STATE_WAIT)                    ))
      )
   {
      _TN_FATAL_ERROR("");
   }

   if (_tn_list_is_empty(&task->task_queue) != (task->pwait_queue == TN_NULL)){
      _TN_FATAL_ERROR("task_queue and pwait_queue are out of sync");
   }

#endif

   //-- NOTE: we should remove task from wait_queue before calling
   //   _on_task_wait_complete(), because _find_max_blocked_priority()
   //   in tn_mutex.c checks for all tasks in mutex's wait_queue to
   //   get max blocked priority

   //-- NOTE: we don't care here whether task is contained in any wait_queue,
   //   because even if it isn't, _tn_list_remove_entry() on empty list
   //   does just nothing.
   _tn_list_remove_entry(&task->task_queue);
   //-- and reset task's queue
   _tn_list_reset(&(task->task_queue));

   //-- handle current wait_reason: say, for MUTEX_I, we should
   //   handle priorities of other involved tasks.
   _on_task_wait_complete(task);

   task->pwait_queue  = TN_NULL;
   task->task_wait_rc = wait_rc;

   //-- if timer is active (i.e. task waits for timeout),
   //   cancel that timer
   _tn_timer_cancel(&task->timer);

   //-- remove WAIT state
   task->task_state &= ~TN_TASK_STATE_WAIT;

   //-- Clear wait reason
   task->task_wait_reason = TN_WAIT_REASON_NONE;
}

void _tn_task_set_suspended(struct TN_Task *task)
{
#if TN_DEBUG
   //-- only WAIT bit is allowed here
   if (task->task_state & ~(TN_TASK_STATE_WAIT)){
      _TN_FATAL_ERROR("");
   }
#endif

   task->task_state |= TN_TASK_STATE_SUSPEND;
}

void _tn_task_clear_suspended(struct TN_Task *task)
{
#if TN_DEBUG
   //-- only WAIT and SUSPEND bits are allowed here,
   //   and SUSPEND bit must be set
   if (
         (task->task_state & ~(TN_TASK_STATE_WAIT | TN_TASK_STATE_SUSPEND))
         || (!(task->task_state &                   (TN_TASK_STATE_SUSPEND)))
      )
   {
      _TN_FATAL_ERROR("");
   }
#endif

   task->task_state &= ~TN_TASK_STATE_SUSPEND;
}

void _tn_task_set_dormant(struct TN_Task* task)
{

#if TN_DEBUG
   if (task->task_state != TN_TASK_STATE_NONE){
      _TN_FATAL_ERROR("");
   } else if (!_tn_list_is_empty(&task->mutex_queue)){
      _TN_FATAL_ERROR("");
   } else if (!_tn_list_is_empty(&task->deadlock_list)){
      _TN_FATAL_ERROR("");
   }
#endif

   task->priority    = task->base_priority;      //-- Task curr priority
   task->task_state  |= TN_TASK_STATE_DORMANT;   //-- Task state

   task->tslice_count  = 0;
}

void _tn_task_clear_dormant(struct TN_Task *task)
{
#if TN_DEBUG
   //-- task_state should be exactly TN_TASK_STATE_DORMANT here
   if (task->task_state != TN_TASK_STATE_DORMANT){
      _TN_FATAL_ERROR("");
   }
#endif

   //--- Init task stack, save pointer to task top of stack,
   //    when not running
   task->stack_cur_pt = _tn_arch_stack_init(
         task->task_func_addr,
         task->stack_low_addr,
         task->stack_high_addr,
         task->task_func_param
         );

   task->task_state &= ~TN_TASK_STATE_DORMANT;


#if TN_PROFILER
   //-- If profiler is present, set last tick count
   //   to current tick count value
   task->profiler.last_tick_cnt = _tn_timer_sys_time_get();
#endif
}

/**
 * See comment in the _tn_tasks.h file
 */
enum TN_RCode _tn_task_activate(struct TN_Task *task)
{
   enum TN_RCode rc = TN_RC_OK;

   if (_tn_task_is_dormant(task)){
      _tn_task_clear_dormant(task);
      _tn_task_set_runnable(task);
   } else {
      rc = TN_RC_WSTATE;
   }

   return rc;
}

/**
 * See comment in the _tn_tasks.h file
 */
TN_BOOL _tn_task_first_wait_complete(
      struct TN_ListItem           *wait_queue,
      enum TN_RCode                 wait_rc,
      _TN_CBBeforeTaskWaitComplete *callback,
      void                         *user_data_1,
      void                         *user_data_2
      )
{
   TN_BOOL ret = TN_FALSE;

   if (!(_tn_list_is_empty(wait_queue))){
      struct TN_Task *task;
      //-- there are tasks in the wait queue, so, wake up the first one

      //-- get first task from the wait_queue
      task = _tn_list_first_entry(wait_queue, struct TN_Task, task_queue);

      //-- call provided callback (if any)
      if (callback != TN_NULL){
         callback(task, user_data_1, user_data_2);
      }

      //-- wake task up
      _tn_task_wait_complete(task, wait_rc);

      //-- indicate that some task has been woken up
      ret = TN_TRUE;
   }

   return ret;
}


/**
 * See comment in the _tn_tasks.h file
 */
void _tn_change_task_priority(struct TN_Task *task, int new_priority)
{
   if (_tn_task_is_runnable(task)){
      _tn_change_running_task_priority(task, new_priority);
   } else {
      task->priority = new_priority;
   }
}

/**
 * See comment in the _tn_tasks.h file
 */
void _tn_change_running_task_priority(struct TN_Task *task, int new_priority)
{
   if (!_tn_task_is_runnable(task)){
      _TN_FATAL_ERROR("_tn_change_running_task_priority called for non-runnable task");
   }

   //-- remove curr task from any (wait/ready) queue
   _remove_entry_from_ready_queue(&(task->task_queue), task->priority);

   task->priority = new_priority;

   //-- Add task to the end of ready queue for current priority
   _add_entry_to_ready_queue(&(task->task_queue), new_priority);

   _find_next_task_to_run();
}

#if 0
/**
 * See comment in the _tn_tasks.h file
 */
void _tn_task_set_last_rc_if_error(enum TN_RCode rc)
{
   if (rc != TN_RC_OK){
      TN_INTSAVE_DATA;

      TN_INT_DIS_SAVE();
      _tn_curr_run_task->last_rc = rc;
      TN_INT_RESTORE();
   }
}
#endif

#if TN_USE_MUTEXES
/**
 * See comment in the _tn_tasks.h file
 */
TN_BOOL _tn_is_mutex_locked_by_task(struct TN_Task *task, struct TN_Mutex *mutex)
{
   TN_BOOL ret = TN_FALSE;

   struct TN_Mutex *tmp_mutex;
   _tn_list_for_each_entry(
         tmp_mutex, struct TN_Mutex, &(task->mutex_queue), mutex_queue
         )
   {
      if (tmp_mutex == mutex){
         ret = TN_TRUE;
         break;
      }
   }

   return ret;
}

#endif

/*
 * See comment in the _tn_tasks.h file
 */
void _tn_task_exit_nodelete(void)
{
   tn_task_exit((enum TN_TaskExitOpt)(0));
}



#if !defined(_TN_ARCH_STACK_DIR)
#  error _TN_ARCH_STACK_DIR is not defined
#endif

#if (_TN_ARCH_STACK_DIR == _TN_ARCH_STACK_DIR__ASC)
//-- full ascending stack {{{

/*
 * See comments in the file _tn_sys.h
 */
TN_UWord *_tn_task_stack_end_get(
      struct TN_Task *task
      )
{
   return task->stack_high_addr;
}
    19c6:	09 1d 90    	mov.w     [w9+48], w10
    19c8:	0a 00 78    	mov.w     w10, w0
    19ca:	a4 2c 02    	call      0x2ca4 <.eb>
    19cc:	00 00 00 
    19ce:	00 00 e0    	cp0.w     w0
    19d0:	11 00 3a    	bra       NZ, 0x19f4 <.L79>
    19d2:	0a 00 78    	mov.w     w10, w0
    19d4:	aa 2c 02    	call      0x2caa <.eb>
    19d6:	00 00 00 
    19d8:	00 00 e0    	cp0.w     w0
    19da:	0c 00 3a    	bra       NZ, 0x19f4 <.L79>
    19dc:	0a 00 78    	mov.w     w10, w0
    19de:	20 2d 02    	call      0x2d20 <__tn_task_is_runnable.clone.0>
    19e0:	00 00 00 
    19e2:	00 00 e0    	cp0.w     w0
    19e4:	03 00 32    	bra       Z, 0x19ec <.L76>
    19e6:	09 00 78    	mov.w     w9, w0
    19e8:	ca 1d 02    	call      0x1dca <.eb>
    19ea:	00 00 00 

000019ec <.L76>:
    19ec:	09 00 78    	mov.w     w9, w0
    19ee:	6a 2c 02    	call      0x2c6a <.eb>
    19f0:	00 00 00 
    19f2:	01 00 37    	bra       0x19f6 <.L75>

000019f4 <.L79>:
    19f4:	c8 ff 2f    	mov.w     #0xfffc, w8

000019f6 <.L75>:
    19f6:	0b 00 78    	mov.w     w11, w0
    19f8:	98 16 02    	call      0x1698 <_tn_arch_sr_restore>
    19fa:	00 00 00 
    19fc:	90 2b 02    	call      0x2b90 <.eb>
    19fe:	00 00 00 
    1a00:	01 00 37    	bra       0x1a04 <.L74>

00001a02 <.L77>:
    1a02:	d8 ff 2f    	mov.w     #0xfffd, w8

00001a04 <.L74>:
    1a04:	08 00 78    	mov.w     w8, w0
    1a06:	4f 05 be    	mov.d     [--w15], w10
    1a08:	4f 04 be    	mov.d     [--w15], w8
    1a0a:	00 00 06    	return    
Disassembly of section .text._sem_job_perform:

00001a0c <__sem_job_perform>:
      struct TN_Sem *sem,
      enum TN_RCode (p_worker)(struct TN_Sem *sem),
      TN_TickCnt timeout
      )
{
    1a0c:	04 00 fa    	lnk       #0x4
    1a0e:	88 9f be    	mov.d     w8, [w15++]
    1a10:	8a 9f be    	mov.d     w10, [w15++]
    1a12:	00 04 78    	mov.w     w0, w8
    1a14:	81 05 78    	mov.w     w1, w11
   enum TN_RCode rc = _check_param_generic(sem);
    1a16:	08 00 78    	mov.w     w8, w0
    1a18:	a2 bf 9f    	mov.w     w2, [w15-12]
    1a1a:	b3 bf 9f    	mov.w     w3, [w15-10]
    1a1c:	de 29 02    	call      0x29de <.eb>
    1a1e:	00 00 00 
    1a20:	80 04 78    	mov.w     w0, w9
   TN_BOOL waited_for_sem = TN_FALSE;

   if (rc != TN_RC_OK){
    1a22:	09 00 e0    	cp0.w     w9
    1a24:	20 00 3a    	bra       NZ, 0x1a66 <.L30>
      //-- just return rc as it is
   } else if (!tn_is_task_context()){
    1a26:	30 2b 02    	call      0x2b30 <.eb>
    1a28:	00 00 00 
      rc = TN_RC_WCONTEXT;
    1a2a:	d9 ff 2f    	mov.w     #0xfffd, w9
    1a2c:	00 00 e0    	cp0.w     w0
    1a2e:	1b 00 32    	bra       Z, 0x1a66 <.L30>
   } else {
      TN_INTSAVE_DATA;

      TN_INT_DIS_SAVE();      //-- disable interrupts
    1a30:	8a 16 02    	call      0x168a <_tn_arch_sr_save_int_dis>
    1a32:	00 00 00 
    1a34:	00 05 78    	mov.w     w0, w10
      rc = p_worker(sem);     //-- call actual worker function
    1a36:	08 00 78    	mov.w     w8, w0
    1a38:	0b 00 01    	call      w11
    1a3a:	80 04 78    	mov.w     w0, w9
    1a3c:	80 05 eb    	clr.w     w11

      //-- if we should wait, put current task to wait
      if (rc == TN_RC_TIMEOUT && timeout != 0){
    1a3e:	2f b9 97    	mov.w     [w15-12], w2
    1a40:	bf b9 97    	mov.w     [w15-10], w3
    1a42:	e1 8f 44    	add.w     w9, #0x1, [w15]
    1a44:	07 00 3a    	bra       NZ, 0x1a54 <.L31>
    1a46:	e0 0f 51    	sub.w     w2, #0x0, [w15]
    1a48:	e0 8f 59    	subb.w    w3, #0x0, [w15]
    1a4a:	04 00 32    	bra       Z, 0x1a54 <.L31>
         _tn_task_curr_to_wait_action(
    1a4c:	08 80 e8    	inc2.w    w8, w0
    1a4e:	44 26 02    	call      0x2644 <.eb>
    1a50:	00 00 00 
               &(sem->wait_queue), TN_WAIT_REASON_SEM, timeout
               );

         //-- rc will be set later thanks to waited_for_sem
         waited_for_sem = TN_TRUE;
    1a52:	1b 00 20    	mov.w     #0x1, w11

00001a54 <.L31>:
      }

#if TN_DEBUG
      //-- if we're going to wait, _tn_need_context_switch() must return TN_TRUE
      if (!_tn_need_context_switch() && waited_for_sem){
         _TN_FATAL_ERROR("");
      }
#endif

      TN_INT_RESTORE();       //-- restore previous interrupts state
    1a54:	0a 00 78    	mov.w     w10, w0
    1a56:	98 16 02    	call      0x1698 <_tn_arch_sr_restore>
    1a58:	00 00 00 
      _tn_context_switch_pend_if_needed();
    1a5a:	c8 2b 02    	call      0x2bc8 <.eb>
    1a5c:	00 00 00 
      if (waited_for_sem){
    1a5e:	0b 00 e0    	cp0.w     w11
    1a60:	02 00 32    	bra       Z, 0x1a66 <.L30>
         //-- get wait result
         rc = _tn_curr_run_task->task_wait_rc;
    1a62:	20 64 80    	mov.w     0xc84, w0
    1a64:	a0 1c 90    	mov.w     [w0+52], w9

00001a66 <.L30>:
      }

   }
   return rc;
}
    1a66:	09 00 78    	mov.w     w9, w0
    1a68:	4f 05 be    	mov.d     [--w15], w10
    1a6a:	4f 04 be    	mov.d     [--w15], w8
    1a6c:	00 80 fa    	ulnk      
    1a6e:	00 00 06    	return    
Disassembly of section .text._tn_timer_start:

00001a70 <__tn_timer_start>:
/**
 * See comments in the _tn_timer.h file.
 */
enum TN_RCode _tn_timer_start(struct TN_Timer *timer, TN_TickCnt timeout)
{
    1a70:	04 00 fa    	lnk       #0x4
    1a72:	88 9f be    	mov.d     w8, [w15++]
    1a74:	00 04 78    	mov.w     w0, w8
   enum TN_RCode rc = TN_RC_OK;

   //-- interrupts should be disabled here
   _TN_BUG_ON( !TN_IS_INT_DISABLED() );

   if (timeout == TN_WAIT_INFINITE || timeout == 0){
    1a76:	61 00 51    	sub.w     w2, #0x1, w0
    1a78:	e0 80 59    	subb.w    w3, #0x0, w1
      rc = TN_RC_WPARAM;
    1a7a:	b9 ff 2f    	mov.w     #0xfffb, w9
    1a7c:	e3 0f 40    	add.w     w0, #0x3, [w15]
    1a7e:	e0 8f 48    	addc.w    w1, #0x0, [w15]
    1a80:	24 00 3e    	bra       GTU, 0x1aca <.L6>
   } else {

      //-- if timer is active, cancel it first
      if ((rc = _tn_timer_cancel(timer)) == TN_RC_OK){
    1a82:	08 00 78    	mov.w     w8, w0
    1a84:	c2 bf 9f    	mov.w     w2, [w15-8]
    1a86:	d3 bf 9f    	mov.w     w3, [w15-6]
    1a88:	aa 25 02    	call      0x25aa <.eb>
    1a8a:	00 00 00 
    1a8c:	80 04 78    	mov.w     w0, w9
    1a8e:	4f b9 97    	mov.w     [w15-8], w2
    1a90:	df b9 97    	mov.w     [w15-6], w3
    1a92:	09 00 e0    	cp0.w     w9
    1a94:	1a 00 3a    	bra       NZ, 0x1aca <.L6>

         if (timeout < TN_TICK_LISTS_CNT){
    1a96:	e7 0f 51    	sub.w     w2, #0x7, [w15]
    1a98:	e0 8f 59    	subb.w    w3, #0x0, [w15]
    1a9a:	0c 00 3e    	bra       GTU, 0x1ab4 <.L7>
            //-- timer should be added to the one of "tick" lists.
            int tick_list_index = _TICK_LIST_INDEX(timeout);
    1a9c:	00 79 80    	mov.w     0xf20, w0
    1a9e:	11 79 80    	mov.w     0xf22, w1
    1aa0:	00 01 41    	add.w     w2, w0, w2
    1aa2:	67 01 61    	and.w     w2, #0x7, w2
            timer->timeout_cur = tick_list_index;
    1aa4:	61 10 b9    	mul.su    w2, #0x1, w0
    1aa6:	50 04 98    	mov.w     w0, [w8+10]
    1aa8:	61 04 98    	mov.w     w1, [w8+12]

            _tn_list_add_tail(
    1aaa:	88 80 e8    	inc2.w    w8, w1
    1aac:	42 10 dd    	sl.w      w2, #0x2, w0
    1aae:	03 f0 20    	mov.w     #0xf00, w3
    1ab0:	03 00 40    	add.w     w0, w3, w0
    1ab2:	09 00 37    	bra       0x1ac6 <.L9>

00001ab4 <.L7>:
                  &_tn_timer_list__tick[ tick_list_index ],
                  &(timer->timer_queue)
                  );
         } else {
            //-- timer should be added to the "generic" list.
            //   We should set timeout_cur adding current "tick" index to it.
            timer->timeout_cur = timeout + _TICK_LIST_INDEX(0);
    1ab4:	00 79 80    	mov.w     0xf20, w0
    1ab6:	11 79 80    	mov.w     0xf22, w1
    1ab8:	67 00 60    	and.w     w0, #0x7, w0
    1aba:	02 01 40    	add.w     w0, w2, w2
    1abc:	e0 81 49    	addc.w    w3, #0x0, w3
    1abe:	52 04 98    	mov.w     w2, [w8+10]
    1ac0:	63 04 98    	mov.w     w3, [w8+12]

            _tn_list_add_tail(&_tn_timer_list__gen, &(timer->timer_queue));
    1ac2:	88 80 e8    	inc2.w    w8, w1
    1ac4:	c0 ef 20    	mov.w     #0xefc, w0

00001ac6 <.L9>:
    1ac6:	32 2c 02    	call      0x2c32 <.eb>
    1ac8:	00 00 00 

00001aca <.L6>:
         }
      }
   }

   return rc;
}
    1aca:	09 00 78    	mov.w     w9, w0
    1acc:	4f 04 be    	mov.d     [--w15], w8
    1ace:	00 80 fa    	ulnk      
    1ad0:	00 00 06    	return    
Disassembly of section .text.tn_mutex_delete:

00001ad2 <_tn_mutex_delete>:
/*
 * See comments in the header file (tn_mutex.h)
 */
enum TN_RCode tn_mutex_delete(struct TN_Mutex *mutex)
{
    1ad2:	88 9f be    	mov.d     w8, [w15++]
    1ad4:	8a 1f 78    	mov.w     w10, [w15++]
    1ad6:	00 04 78    	mov.w     w0, w8
   enum TN_RCode rc = _check_param_generic(mutex);
    1ad8:	08 00 78    	mov.w     w8, w0
    1ada:	f6 29 02    	call      0x29f6 <__check_param_generic>
    1adc:	00 00 00 
    1ade:	80 04 78    	mov.w     w0, w9

   if (rc != TN_RC_OK){
    1ae0:	09 00 e0    	cp0.w     w9
    1ae2:	23 00 3a    	bra       NZ, 0x1b2a <.L91>
      //-- just return rc as it is
   } else if (!tn_is_task_context()){
    1ae4:	50 2b 02    	call      0x2b50 <.eb>
    1ae6:	00 00 00 
    1ae8:	00 00 e0    	cp0.w     w0
    1aea:	1e 00 32    	bra       Z, 0x1b28 <.L95>
      rc = TN_RC_WCONTEXT;
   } else {
      TN_INTSAVE_DATA;

      TN_INT_DIS_SAVE();
    1aec:	8a 16 02    	call      0x168a <_tn_arch_sr_save_int_dis>
    1aee:	00 00 00 
    1af0:	00 05 78    	mov.w     w0, w10

      //-- mutex can be deleted if only it isn't held 
      if (mutex->holder != TN_NULL && mutex->holder != _tn_curr_run_task){
    1af2:	08 08 90    	mov.w     [w8+16], w0
    1af4:	00 00 e0    	cp0.w     w0
    1af6:	03 00 32    	bra       Z, 0x1afe <.L92>
    1af8:	21 64 80    	mov.w     0xc84, w1
    1afa:	81 0f 50    	sub.w     w0, w1, [w15]
    1afc:	0e 00 3a    	bra       NZ, 0x1b1a <.L96>

00001afe <.L92>:
         rc = TN_RC_ILLEGAL_USE;
      } else {

         //-- Remove all tasks (if any) from mutex's wait queue
         _tn_wait_queue_notify_deleted(&(mutex->wait_queue));
    1afe:	08 80 e8    	inc2.w    w8, w0
    1b00:	8a 27 02    	call      0x278a <.eb>
    1b02:	00 00 00 

         if (mutex->holder != TN_NULL){
    1b04:	08 08 90    	mov.w     [w8+16], w0
    1b06:	00 00 e0    	cp0.w     w0
    1b08:	06 00 32    	bra       Z, 0x1b16 <.L94>
            //-- If the mutex is locked
            _mutex_do_unlock(mutex);
    1b0a:	08 00 78    	mov.w     w8, w0
    1b0c:	56 1e 02    	call      0x1e56 <.eb>
    1b0e:	00 00 00 

            //-- NOTE: redundant reset, because it will anyway
            //         be reset in tn_mutex_create()
            //
            //         Probably we need to remove it.
            _tn_list_reset(&(mutex->mutex_queue));
    1b10:	66 00 44    	add.w     w8, #0x6, w0
    1b12:	04 2d 02    	call      0x2d04 <.eb>
    1b14:	00 00 00 

00001b16 <.L94>:
         }

         mutex->id_mutex = TN_ID_NONE; //-- mutex does not exist now
    1b16:	00 0c eb    	clr.w     [w8]
    1b18:	01 00 37    	bra       0x1b1c <.L93>

00001b1a <.L96>:
    1b1a:	a9 ff 2f    	mov.w     #0xfffa, w9

00001b1c <.L93>:

      }

      TN_INT_RESTORE();
    1b1c:	0a 00 78    	mov.w     w10, w0
    1b1e:	98 16 02    	call      0x1698 <_tn_arch_sr_restore>
    1b20:	00 00 00 

      //-- we might need to switch context if _tn_wait_queue_notify_deleted()
      //   has woken up some high-priority task
      _tn_context_switch_pend_if_needed();
    1b22:	e4 2b 02    	call      0x2be4 <.eb>
    1b24:	00 00 00 
    1b26:	01 00 37    	bra       0x1b2a <.L91>

00001b28 <.L95>:
    1b28:	d9 ff 2f    	mov.w     #0xfffd, w9

00001b2a <.L91>:
   }

   return rc;
}
    1b2a:	09 00 78    	mov.w     w9, w0
    1b2c:	4f 05 78    	mov.w     [--w15], w10
    1b2e:	4f 04 be    	mov.d     [--w15], w8
    1b30:	00 00 06    	return    
Disassembly of section .text.tn_task_resume:

00001b32 <_tn_task_resume>:
/*
 * See comments in the header file (tn_tasks.h)
 */
enum TN_RCode tn_task_resume(struct TN_Task *task)
{
    1b32:	88 9f be    	mov.d     w8, [w15++]
    1b34:	8a 1f 78    	mov.w     w10, [w15++]
    1b36:	00 04 78    	mov.w     w0, w8
   enum TN_RCode rc = _check_param_generic(task);
    1b38:	08 00 78    	mov.w     w8, w0
    1b3a:	96 29 02    	call      0x2996 <.eb>
    1b3c:	00 00 00 
    1b3e:	80 04 78    	mov.w     w0, w9

   if (rc != TN_RC_OK){
    1b40:	09 00 e0    	cp0.w     w9
    1b42:	20 00 3a    	bra       NZ, 0x1b84 <.L82>
      //-- just return rc as it is
   } else if (!tn_is_task_context()){
    1b44:	c0 2a 02    	call      0x2ac0 <.eb>
    1b46:	00 00 00 
    1b48:	00 00 e0    	cp0.w     w0
    1b4a:	1b 00 32    	bra       Z, 0x1b82 <.L84>
      rc = TN_RC_WCONTEXT;
   } else {
      TN_INTSAVE_DATA;

      TN_INT_DIS_SAVE();
    1b4c:	8a 16 02    	call      0x168a <_tn_arch_sr_save_int_dis>
    1b4e:	00 00 00 
    1b50:	00 05 78    	mov.w     w0, w10

      if (!_tn_task_is_suspended(task)){
    1b52:	08 18 90    	mov.w     [w8+48], w0
    1b54:	a4 2c 02    	call      0x2ca4 <.eb>
    1b56:	00 00 00 
    1b58:	00 00 e0    	cp0.w     w0
    1b5a:	0c 00 32    	bra       Z, 0x1b74 <.L85>
         //-- task isn't suspended; this is wrong state.
         rc = TN_RC_WSTATE;
      } else {

         //-- clear suspended state
         _tn_task_clear_suspended(task);
    1b5c:	08 00 78    	mov.w     w8, w0
    1b5e:	72 2c 02    	call      0x2c72 <.eb>
    1b60:	00 00 00 

         if (!_tn_task_is_waiting(task)){
    1b62:	08 18 90    	mov.w     [w8+48], w0
    1b64:	9e 2c 02    	call      0x2c9e <.eb>
    1b66:	00 00 00 
    1b68:	00 00 e0    	cp0.w     w0
    1b6a:	05 00 3a    	bra       NZ, 0x1b76 <.L83>
            //-- The task is not in the WAIT-SUSPEND state,
            //   so we need to make it runnable and probably switch context
            _tn_task_set_runnable(task);
    1b6c:	08 00 78    	mov.w     w8, w0
    1b6e:	68 27 02    	call      0x2768 <.eb>
    1b70:	00 00 00 
    1b72:	01 00 37    	bra       0x1b76 <.L83>

00001b74 <.L85>:
    1b74:	c9 ff 2f    	mov.w     #0xfffc, w9

00001b76 <.L83>:
         }

      }

      TN_INT_RESTORE();
    1b76:	0a 00 78    	mov.w     w10, w0
    1b78:	98 16 02    	call      0x1698 <_tn_arch_sr_restore>
    1b7a:	00 00 00 
      _tn_context_switch_pend_if_needed();
    1b7c:	90 2b 02    	call      0x2b90 <.eb>
    1b7e:	00 00 00 
    1b80:	01 00 37    	bra       0x1b84 <.L82>

00001b82 <.L84>:
    1b82:	d9 ff 2f    	mov.w     #0xfffd, w9

00001b84 <.L82>:

   }
   return rc;

}
    1b84:	09 00 78    	mov.w     w9, w0
    1b86:	4f 05 78    	mov.w     [--w15], w10
    1b88:	4f 04 be    	mov.d     [--w15], w8
    1b8a:	00 00 06    	return    
Disassembly of section .text._tn_arch_stack_init:

00001b8c <__tn_arch_stack_init>:

   //-- set return address that is used when task body function returns:
   //   we set it to _tn_task_exit_nodelete, so that returning from task
   //   body function is equivalent to calling tn_task_exit(0)
   *(cur_stack_pt++) = (TN_UWord)_tn_task_exit_nodelete;
    1b8c:	44 cd 22    	mov.w     #0x2cd4, w4
    1b8e:	84 18 78    	mov.w     w4, [w1++]
   *(cur_stack_pt++) = 0;
    1b90:	00 02 eb    	clr.w     w4
    1b92:	84 18 78    	mov.w     w4, [w1++]

   //-- set return address that is used when context is switched to the task
   //   for the first time. We set it to the task body function.
   *(cur_stack_pt++) = (TN_UWord)task_func;
    1b94:	80 18 78    	mov.w     w0, [w1++]
   *(cur_stack_pt++) = 0;
    1b96:	01 00 78    	mov.w     w1, w0
    1b98:	04 18 78    	mov.w     w4, [w0++]

   //-- save usual context for PIC24/dsPIC.
   *(cur_stack_pt++) = 0x0103;               // SR
    1b9a:	31 10 20    	mov.w     #0x103, w1
    1b9c:	01 18 78    	mov.w     w1, [w0++]
   *(cur_stack_pt++) = 0x1414;               // W14
    1b9e:	41 41 21    	mov.w     #0x1414, w1
    1ba0:	01 18 78    	mov.w     w1, [w0++]
   *(cur_stack_pt++) = 0x1212;               // W12
    1ba2:	21 20 b1    	sub.w     #0x202, w1
    1ba4:	01 18 78    	mov.w     w1, [w0++]
   *(cur_stack_pt++) = 0x1313;               // W13
    1ba6:	11 10 b0    	add.w     #0x101, w1
    1ba8:	01 18 78    	mov.w     w1, [w0++]
   *(cur_stack_pt++) = 0x1010;               // W10
    1baa:	31 30 b1    	sub.w     #0x303, w1
    1bac:	01 18 78    	mov.w     w1, [w0++]
   *(cur_stack_pt++) = 0x1111;               // W11
    1bae:	11 10 b0    	add.w     #0x101, w1
    1bb0:	01 18 78    	mov.w     w1, [w0++]
   *(cur_stack_pt++) = 0x0808;               // W08
    1bb2:	81 80 20    	mov.w     #0x808, w1
    1bb4:	01 18 78    	mov.w     w1, [w0++]
   *(cur_stack_pt++) = 0x0909;               // W09
    1bb6:	11 10 b0    	add.w     #0x101, w1
    1bb8:	01 18 78    	mov.w     w1, [w0++]
   *(cur_stack_pt++) = 0x0606;               // W06
    1bba:	31 30 b1    	sub.w     #0x303, w1
    1bbc:	01 18 78    	mov.w     w1, [w0++]
   *(cur_stack_pt++) = 0x0707;               // W07
    1bbe:	11 10 b0    	add.w     #0x101, w1
    1bc0:	01 18 78    	mov.w     w1, [w0++]
   *(cur_stack_pt++) = 0x0404;               // W04
    1bc2:	31 30 b1    	sub.w     #0x303, w1
    1bc4:	01 18 78    	mov.w     w1, [w0++]
   *(cur_stack_pt++) = 0x0505;               // W05
    1bc6:	11 10 b0    	add.w     #0x101, w1
    1bc8:	01 18 78    	mov.w     w1, [w0++]
   *(cur_stack_pt++) = 0x0202;               // W02
    1bca:	21 20 20    	mov.w     #0x202, w1
    1bcc:	01 18 78    	mov.w     w1, [w0++]
   *(cur_stack_pt++) = 0x0303;               // W03
    1bce:	31 30 20    	mov.w     #0x303, w1
    1bd0:	01 18 78    	mov.w     w1, [w0++]
   *(cur_stack_pt++) = (TN_UWord)param;      // W00 - task func param
    1bd2:	03 18 78    	mov.w     w3, [w0++]
   *(cur_stack_pt++) = 0x0101;               // W01
    1bd4:	11 10 20    	mov.w     #0x101, w1
    1bd6:	01 18 78    	mov.w     w1, [w0++]
   *(cur_stack_pt++) = 0;                    // RCOUNT
    1bd8:	04 18 78    	mov.w     w4, [w0++]
   *(cur_stack_pt++) = 0;                    // TBLPAG
    1bda:	04 18 78    	mov.w     w4, [w0++]
   *(cur_stack_pt++) = 0x04;                 // CORCON: the PSV bit is set.
    1bdc:	41 00 20    	mov.w     #0x4, w1
    1bde:	01 18 78    	mov.w     w1, [w0++]
#ifdef __HAS_EDS__
   *(cur_stack_pt++) = 0;                    // DSRPAG
   *(cur_stack_pt++) = 0;                    // DSWPAG
#else
   *(cur_stack_pt++) = 0;                    // PSVPAG
    1be0:	04 18 78    	mov.w     w4, [w0++]
    1be2:	02 98 e9    	dec2.w    w2, [w0++]
#endif

   *(cur_stack_pt++) = (TN_UWord)p_splim;    // SPLIM

   return cur_stack_pt;
}
    1be4:	00 00 06    	return    
Disassembly of section .text.tn_mutex_unlock:

00001be6 <_tn_mutex_unlock>:
/*
 * See comments in the header file (tn_mutex.h)
 */
enum TN_RCode tn_mutex_unlock(struct TN_Mutex *mutex)
{
    1be6:	88 9f be    	mov.d     w8, [w15++]
    1be8:	8a 1f 78    	mov.w     w10, [w15++]
    1bea:	00 04 78    	mov.w     w0, w8
   enum TN_RCode rc = _check_param_generic(mutex);
    1bec:	08 00 78    	mov.w     w8, w0
    1bee:	f6 29 02    	call      0x29f6 <__check_param_generic>
    1bf0:	00 00 00 
    1bf2:	80 04 78    	mov.w     w0, w9

   if (rc != TN_RC_OK){
    1bf4:	09 00 e0    	cp0.w     w9
    1bf6:	20 00 3a    	bra       NZ, 0x1c38 <.L109>
      //-- just return rc as it is
   } else if (!tn_is_task_context()){
    1bf8:	50 2b 02    	call      0x2b50 <.eb>
    1bfa:	00 00 00 
    1bfc:	00 00 e0    	cp0.w     w0
    1bfe:	1b 00 32    	bra       Z, 0x1c36 <.L112>
      rc = TN_RC_WCONTEXT;
   } else {
      TN_INTSAVE_DATA;

      TN_INT_DIS_SAVE();
    1c00:	8a 16 02    	call      0x168a <_tn_arch_sr_save_int_dis>
    1c02:	00 00 00 
    1c04:	00 05 78    	mov.w     w0, w10

      //-- unlocking is enabled only for the owner and already locked mutex
      if (_tn_curr_run_task != mutex->holder){
    1c06:	08 08 90    	mov.w     [w8+16], w0
    1c08:	21 64 80    	mov.w     0xc84, w1
    1c0a:	80 8f 50    	sub.w     w1, w0, [w15]
    1c0c:	0d 00 3a    	bra       NZ, 0x1c28 <.L113>
         rc = TN_RC_ILLEGAL_USE;
      } else {

         //-- decrement lock count (if recursive locking is enabled)
         __mutex_lock_cnt_change(mutex, -1);
    1c0e:	28 08 90    	mov.w     [w8+20], w0
    1c10:	00 00 e9    	dec.w     w0, w0
    1c12:	20 0c 98    	mov.w     w0, [w8+20]

         if (mutex->cnt > 0){
    1c14:	42 40 a9    	bclr.b    0x42, #0x2
    1c16:	09 00 3c    	bra       GT, 0x1c2a <.L110>
            //-- there was recursive lock, so here we just decremented counter, 
            //   but don't unlock the mutex. 
            //   We're done, TN_RC_OK will be returned.
         } else if (mutex->cnt < 0){
    1c18:	03 00 32    	bra       Z, 0x1c20 <.L111>
            //-- should never be here: lock count is negative.
            //   Bug in the kernel, or memory got corrupted.
            _TN_FATAL_ERROR();
    1c1a:	00 40 da    	break     
    1c1c:	00 00 00    	nop       
    1c1e:	05 00 37    	bra       0x1c2a <.L110>

00001c20 <.L111>:
         } else {
            //-- lock counter is 0, so, unlock mutex
            _mutex_do_unlock(mutex);
    1c20:	08 00 78    	mov.w     w8, w0
    1c22:	56 1e 02    	call      0x1e56 <.eb>
    1c24:	00 00 00 
    1c26:	01 00 37    	bra       0x1c2a <.L110>

00001c28 <.L113>:
    1c28:	a9 ff 2f    	mov.w     #0xfffa, w9

00001c2a <.L110>:
         }

      }

      TN_INT_RESTORE();
    1c2a:	0a 00 78    	mov.w     w10, w0
    1c2c:	98 16 02    	call      0x1698 <_tn_arch_sr_restore>
    1c2e:	00 00 00 
      _tn_context_switch_pend_if_needed();
    1c30:	e4 2b 02    	call      0x2be4 <.eb>
    1c32:	00 00 00 
    1c34:	01 00 37    	bra       0x1c38 <.L109>

00001c36 <.L112>:
    1c36:	d9 ff 2f    	mov.w     #0xfffd, w9

00001c38 <.L109>:
   }

   return rc;

}
    1c38:	09 00 78    	mov.w     w9, w0
    1c3a:	4f 05 78    	mov.w     [--w15], w10
    1c3c:	4f 04 be    	mov.d     [--w15], w8
    1c3e:	00 00 06    	return    
Disassembly of section .text.tn_task_change_priority:

00001c40 <_tn_task_change_priority>:
/*
 * See comments in the header file (tn_tasks.h)
 */
enum TN_RCode tn_task_change_priority(struct TN_Task *task, int new_priority)
{
    1c40:	88 9f be    	mov.d     w8, [w15++]
    1c42:	8a 9f be    	mov.d     w10, [w15++]
    1c44:	00 04 78    	mov.w     w0, w8
    1c46:	81 05 78    	mov.w     w1, w11
   enum TN_RCode rc = _check_param_generic(task);
    1c48:	08 00 78    	mov.w     w8, w0
    1c4a:	96 29 02    	call      0x2996 <.eb>
    1c4c:	00 00 00 
    1c4e:	00 05 78    	mov.w     w0, w10

   if (rc != TN_RC_OK){
    1c50:	0a 00 e0    	cp0.w     w10
    1c52:	1e 00 3a    	bra       NZ, 0x1c90 <.L133>
      //-- just return rc as it is
   } else if (new_priority < 0 || new_priority >= (TN_PRIORITIES_CNT - 1)){
      rc = TN_RC_WPARAM;
    1c54:	ba ff 2f    	mov.w     #0xfffb, w10
    1c56:	ee 8f 55    	sub.w     w11, #0xe, [w15]
    1c58:	1b 00 3e    	bra       GTU, 0x1c90 <.L133>
   } else if (!tn_is_task_context()){
    1c5a:	c0 2a 02    	call      0x2ac0 <.eb>
    1c5c:	00 00 00 
      rc = TN_RC_WCONTEXT;
    1c5e:	da ff 2f    	mov.w     #0xfffd, w10
    1c60:	00 00 e0    	cp0.w     w0
    1c62:	16 00 32    	bra       Z, 0x1c90 <.L133>
   } else {
      TN_INTSAVE_DATA;

      TN_INT_DIS_SAVE();
    1c64:	8a 16 02    	call      0x168a <_tn_arch_sr_save_int_dis>
    1c66:	00 00 00 
    1c68:	80 04 78    	mov.w     w0, w9

      if (new_priority == 0){
    1c6a:	0b 00 e0    	cp0.w     w11
    1c6c:	01 00 3a    	bra       NZ, 0x1c70 <.L134>
         new_priority = task->base_priority;
    1c6e:	e8 15 90    	mov.w     [w8+44], w11

00001c70 <.L134>:
      }

      rc = TN_RC_OK;

      if (_tn_task_is_dormant(task)){
    1c70:	08 18 90    	mov.w     [w8+48], w0
    1c72:	aa 2c 02    	call      0x2caa <.eb>
    1c74:	00 00 00 
         rc = TN_RC_WSTATE;
    1c76:	ca ff 2f    	mov.w     #0xfffc, w10
    1c78:	00 00 e0    	cp0.w     w0
    1c7a:	05 00 3a    	bra       NZ, 0x1c86 <.L135>
      } else {
         _tn_change_task_priority(task, new_priority);
    1c7c:	8b 00 78    	mov.w     w11, w1
    1c7e:	08 00 78    	mov.w     w8, w0
    1c80:	c2 28 02    	call      0x28c2 <.eb>
    1c82:	00 00 00 
    1c84:	00 05 eb    	clr.w     w10

00001c86 <.L135>:
      }

      TN_INT_RESTORE();
    1c86:	09 00 78    	mov.w     w9, w0
    1c88:	98 16 02    	call      0x1698 <_tn_arch_sr_restore>
    1c8a:	00 00 00 
      _tn_context_switch_pend_if_needed();
    1c8c:	90 2b 02    	call      0x2b90 <.eb>
    1c8e:	00 00 00 

00001c90 <.L133>:
   }
   return rc;
}
    1c90:	0a 00 78    	mov.w     w10, w0
    1c92:	4f 05 be    	mov.d     [--w15], w10
    1c94:	4f 04 be    	mov.d     [--w15], w8
    1c96:	00 00 06    	return    
Disassembly of section .text._check_deadlock_active:

00001c98 <__check_deadlock_active>:
 *
 * Checks for deadlock; if it is detected, flag TN_STATE_FLAG__DEADLOCK is set.
 */
static void _check_deadlock_active(struct TN_Mutex *mutex, struct TN_Task *task)
{
    1c98:	88 9f be    	mov.d     w8, [w15++]
    1c9a:	8a 1f 78    	mov.w     w10, [w15++]
    1c9c:	00 04 be    	mov.d     w0, w8
    1c9e:	01 00 37    	bra       0x1ca2 <.L73> <.eb>

00001ca0 <.L76>:
   struct TN_Task *holder;

in:
   holder = mutex->holder;
   if (     (_tn_task_is_waiting(task))
         && (
               (holder->task_wait_reason == TN_WAIT_REASON_MUTEX_I)
            || (holder->task_wait_reason == TN_WAIT_REASON_MUTEX_C)
            )
      )
   {
      //-- holder is waiting for another mutex (mutex2). In this case, 
      //   check against task's locked mutexes list; if mutex2 is
      //   there - deadlock.
      //
      //   Otherwise, get holder of mutex2 and call this function
      //   again, recursively.

      struct TN_Mutex *mutex2 = _get_mutex_by_wait_queque(holder->pwait_queue);
      if (_tn_is_mutex_locked_by_task(task, mutex2)){
         //-- link all mutexes and all tasks involved in the deadlock
         _link_deadlock_lists(
               _get_mutex_by_wait_queque(task->pwait_queue),
               task
               );

         //-- cry deadlock active
         //   (user will be notified if he has set callback with
         //   tn_callback_deadlock_set()) NOTE: we should call this function
         //   _after_ calling _link_deadlock_lists(), so that user may examine
         //   mutexes and tasks involved in deadlock.
         _tn_cry_deadlock(TN_TRUE, mutex, task);
      } else {
         //-- call this function again, recursively
         //
         //   NOTE: as a workaround for crappy compilers that don't
         //   know what is tail-recursion, we have to use goto explicitly.
         //   (see SICP, section 1.2.1: Linear Recursion and Iteration)
         //
         //_check_deadlock_active(mutex2, task);

         mutex = mutex2;
    1ca0:	0a 04 78    	mov.w     w10, w8

00001ca2 <.L73>:
    1ca2:	08 0d 90    	mov.w     [w8+16], w10
    1ca4:	09 18 90    	mov.w     [w9+48], w0
    1ca6:	0a 2d 02    	call      0x2d0a <.eb>
    1ca8:	00 00 00 
    1caa:	00 00 e0    	cp0.w     w0
    1cac:	1c 00 32    	bra       Z, 0x1ce6 <.L69>
    1cae:	1a 18 90    	mov.w     [w10+50], w0
    1cb0:	66 00 50    	sub.w     w0, #0x6, w0
    1cb2:	e1 0f 50    	sub.w     w0, #0x1, [w15]
    1cb4:	18 00 3e    	bra       GTU, 0x1ce6 <.L69>
    1cb6:	3a 08 90    	mov.w     [w10+22], w0
    1cb8:	00 05 eb    	clr.w     w10
    1cba:	00 00 e0    	cp0.w     w0
    1cbc:	01 00 32    	bra       Z, 0x1cc0 <.L72>
    1cbe:	00 85 e9    	dec2.w    w0, w10

00001cc0 <.L72>:
    1cc0:	8a 00 78    	mov.w     w10, w1
    1cc2:	09 00 78    	mov.w     w9, w0
    1cc4:	ae 29 02    	call      0x29ae <.eb>
    1cc6:	00 00 00 
    1cc8:	00 00 e0    	cp0.w     w0
    1cca:	ea ff 32    	bra       Z, 0x1ca0 <.L76> <.bb>
    1ccc:	b9 08 90    	mov.w     [w9+22], w1
    1cce:	00 00 eb    	clr.w     w0
    1cd0:	01 00 e0    	cp0.w     w1
    1cd2:	01 00 32    	bra       Z, 0x1cd6 <.L74>
    1cd4:	01 80 e9    	dec2.w    w1, w0

00001cd6 <.L74>:
    1cd6:	89 00 78    	mov.w     w9, w1
    1cd8:	82 1d 02    	call      0x1d82 <.eb>
    1cda:	00 00 00 
    1cdc:	09 01 78    	mov.w     w9, w2
    1cde:	88 00 78    	mov.w     w8, w1
    1ce0:	10 00 20    	mov.w     #0x1, w0
    1ce2:	1c 1f 02    	call      0x1f1c <.eb>
    1ce4:	00 00 00 

00001ce6 <.L69>:
         goto in;
      }

   } else {
      //-- no deadlock: holder of given mutex isn't waiting for another mutex
   }
}
    1ce6:	4f 05 78    	mov.w     [--w15], w10
    1ce8:	4f 04 be    	mov.d     [--w15], w8
    1cea:	00 00 06    	return    
Disassembly of section .text._round_robin_manage:

00001cec <__round_robin_manage>:

#else

static _TN_INLINE void _round_robin_manage(void)
{
    1cec:	88 9f be    	mov.d     w8, [w15++]
    1cee:	8a 1f 78    	mov.w     w10, [w15++]
   //-- volatile is used here only to solve
   //   IAR(c) compiler's high optimization mode problem
   _TN_VOLATILE_WORKAROUND struct TN_ListItem *curr_que;
   _TN_VOLATILE_WORKAROUND struct TN_ListItem *pri_queue;
   _TN_VOLATILE_WORKAROUND int priority = _tn_curr_run_task->priority;
    1cf0:	20 64 80    	mov.w     0xc84, w0
    1cf2:	70 15 90    	mov.w     [w0+46], w10

   if (_tn_tslice_ticks[priority] != TN_NO_TIME_SLICE){
    1cf4:	8a 00 45    	add.w     w10, w10, w1
    1cf6:	c2 cc 20    	mov.w     #0xccc, w2
    1cf8:	e2 80 78    	mov.w     [w2+w1], w1
    1cfa:	01 00 e0    	cp0.w     w1
    1cfc:	1b 00 32    	bra       Z, 0x1d34 <.L5>
      _tn_curr_run_task->tslice_count++;
    1cfe:	30 19 90    	mov.w     [w0+54], w2
    1d00:	02 01 e8    	inc.w     w2, w2
    1d02:	32 18 98    	mov.w     w2, [w0+54]

      if (_tn_curr_run_task->tslice_count > _tn_tslice_ticks[priority]){
    1d04:	81 0f 51    	sub.w     w2, w1, [w15]
    1d06:	16 00 36    	bra       LEU, 0x1d34 <.L5>
         _tn_curr_run_task->tslice_count = 0;
    1d08:	80 00 eb    	clr.w     w1
    1d0a:	31 18 98    	mov.w     w1, [w0+54]

         pri_queue = &(_tn_tasks_ready_list[priority]);
    1d0c:	42 55 dd    	sl.w      w10, #0x2, w10
    1d0e:	c9 c3 20    	mov.w     #0xc3c, w9
    1d10:	09 04 45    	add.w     w10, w9, w8
         //-- If ready queue is not empty and there are more than 1 
         //   task in the queue
         if (     !(_tn_list_is_empty((struct TN_ListItem *)pri_queue))
    1d12:	08 00 78    	mov.w     w8, w0
    1d14:	3c 2a 02    	call      0x2a3c <.eb>
    1d16:	00 00 00 
    1d18:	00 00 e0    	cp0.w     w0
    1d1a:	0c 00 3a    	bra       NZ, 0x1d34 <.L5>
               && pri_queue->next->next != pri_queue
    1d1c:	0a 85 e8    	inc2.w    w10, w10
    1d1e:	69 00 7d    	mov.w     [w9+w10], w0
    1d20:	10 00 90    	mov.w     [w0+2], w0
    1d22:	88 0f 50    	sub.w     w0, w8, [w15]
    1d24:	07 00 32    	bra       Z, 0x1d34 <.L5>
            )
         {
            //-- Remove task from head and add it to the tail of
            //-- ready queue for current priority

            curr_que = _tn_list_remove_head(&(_tn_tasks_ready_list[priority]));
    1d26:	08 00 78    	mov.w     w8, w0
    1d28:	62 29 02    	call      0x2962 <.eb>
    1d2a:	00 00 00 
            _tn_list_add_tail(
    1d2c:	80 00 78    	mov.w     w0, w1
    1d2e:	08 00 78    	mov.w     w8, w0
    1d30:	32 2c 02    	call      0x2c32 <.eb>
    1d32:	00 00 00 

00001d34 <.L5>:
                  &(_tn_tasks_ready_list[priority]),
                  (struct TN_ListItem *)curr_que
                  );
         }
      }
   }
}
    1d34:	4f 05 78    	mov.w     [--w15], w10
    1d36:	4f 04 be    	mov.d     [--w15], w8
    1d38:	00 00 06    	return    
Disassembly of section .text._unlink_deadlock_lists:

00001d3a <__unlink_deadlock_lists>:
/**
 * Unlink deadlock lists (for mutexes and tasks involved)
 */
static void _unlink_deadlock_lists(struct TN_Mutex *mutex, struct TN_Task *task)
{
    1d3a:	88 9f be    	mov.d     w8, [w15++]
    1d3c:	8a 9f be    	mov.d     w10, [w15++]
    1d3e:	00 04 78    	mov.w     w0, w8
    1d40:	81 05 78    	mov.w     w1, w11
   struct TN_ListItem *item;
   struct TN_ListItem *tmp_item;

   //-- unlink list of mutexes
   _tn_list_for_each_safe(item, tmp_item, &mutex->deadlock_list){
    1d42:	e8 04 90    	mov.w     [w8+12], w9
    1d44:	19 05 90    	mov.w     [w9+2], w10
    1d46:	08 00 37    	bra       0x1d58 <.L16>

00001d48 <.L17>:
      _tn_list_remove_entry(item);
    1d48:	09 00 78    	mov.w     w9, w0
    1d4a:	3e 2c 02    	call      0x2c3e <.eb>
    1d4c:	00 00 00 
      _tn_list_reset(item);
    1d4e:	09 00 78    	mov.w     w9, w0
    1d50:	04 2d 02    	call      0x2d04 <.eb>
    1d52:	00 00 00 
    1d54:	8a 04 78    	mov.w     w10, w9
    1d56:	1a 05 90    	mov.w     [w10+2], w10

00001d58 <.L16>:
    1d58:	6a 00 44    	add.w     w8, #0xa, w0
    1d5a:	80 8f 54    	sub.w     w9, w0, [w15]
    1d5c:	f5 ff 3a    	bra       NZ, 0x1d48 <.L17>
   }

   //-- unlink list of tasks
   _tn_list_for_each_safe(item, tmp_item, &task->deadlock_list){
    1d5e:	1b 14 90    	mov.w     [w11+34], w8
    1d60:	98 04 90    	mov.w     [w8+2], w9
    1d62:	08 00 37    	bra       0x1d74 <.L18>

00001d64 <.L19>:
      _tn_list_remove_entry(item);
    1d64:	08 00 78    	mov.w     w8, w0
    1d66:	3e 2c 02    	call      0x2c3e <.eb>
    1d68:	00 00 00 
      _tn_list_reset(item);
    1d6a:	08 00 78    	mov.w     w8, w0
    1d6c:	04 2d 02    	call      0x2d04 <.eb>
    1d6e:	00 00 00 
    1d70:	09 04 78    	mov.w     w9, w8
    1d72:	99 04 90    	mov.w     [w9+2], w9

00001d74 <.L18>:
    1d74:	00 02 20    	mov.w     #0x20, w0
    1d76:	0b 00 40    	add.w     w0, w11, w0
    1d78:	80 0f 54    	sub.w     w8, w0, [w15]
    1d7a:	f4 ff 3a    	bra       NZ, 0x1d64 <.L19>
   }

}
    1d7c:	4f 05 be    	mov.d     [--w15], w10
    1d7e:	4f 04 be    	mov.d     [--w15], w8
    1d80:	00 00 06    	return    
Disassembly of section .text._link_deadlock_lists:

00001d82 <__link_deadlock_lists>:
 * Link all mutexes and all tasks involved in deadlock together.
 * Should be called when deadlock is detected.
 */
static void _link_deadlock_lists(struct TN_Mutex *mutex, struct TN_Task *task)
{
    1d82:	88 9f be    	mov.d     w8, [w15++]
    1d84:	8a 1f 78    	mov.w     w10, [w15++]
    1d86:	80 04 78    	mov.w     w0, w9
    1d88:	01 05 78    	mov.w     w1, w10
    1d8a:	01 00 37    	bra       0x1d8e <.L38>

00001d8c <.L40>:
   struct TN_Task *holder;

in:
   holder = mutex->holder;

   if (     (holder->task_wait_reason != TN_WAIT_REASON_MUTEX_I)
         && (holder->task_wait_reason != TN_WAIT_REASON_MUTEX_C)
      )
   {
      _TN_FATAL_ERROR();
   }

   struct TN_Mutex *mutex2 = _get_mutex_by_wait_queque(holder->pwait_queue);

   //-- link two tasks together
   _tn_list_add_tail(&task->deadlock_list, &holder->deadlock_list); 

   //-- link two mutexes together
   _tn_list_add_head(&mutex->deadlock_list, &mutex2->deadlock_list); 

   if (_tn_is_mutex_locked_by_task(task, mutex2)){
      //-- done; all mutexes and tasks involved in deadlock were linked together.
      //   will return now.
   } else {
      //-- call this function again, recursively
      //
      //   NOTE: as a workaround for crappy compilers that don't
      //   know what is tail-recursion, we have to use goto explicitly.
      //   (see SICP, section 1.2.1: Linear Recursion and Iteration)
      //
      //_link_deadlock_lists(mutex2, task);

      mutex = mutex2;
    1d8c:	88 04 78    	mov.w     w8, w9

00001d8e <.L38>:
    1d8e:	89 08 90    	mov.w     [w9+16], w1
    1d90:	11 18 90    	mov.w     [w1+50], w0
    1d92:	66 00 50    	sub.w     w0, #0x6, w0
    1d94:	e1 0f 50    	sub.w     w0, #0x1, [w15]
    1d96:	02 00 36    	bra       LEU, 0x1d9c <.L36>
    1d98:	00 40 da    	break     
    1d9a:	00 00 00    	nop       

00001d9c <.L36>:
    1d9c:	31 08 90    	mov.w     [w1+22], w0
    1d9e:	00 04 eb    	clr.w     w8
    1da0:	00 00 e0    	cp0.w     w0
    1da2:	01 00 32    	bra       Z, 0x1da6 <.L37>
    1da4:	00 84 e9    	dec2.w    w0, w8

00001da6 <.L37>:
    1da6:	01 02 b0    	add.w     #0x20, w1
    1da8:	00 02 20    	mov.w     #0x20, w0
    1daa:	0a 00 40    	add.w     w0, w10, w0
    1dac:	32 2c 02    	call      0x2c32 <.eb>
    1dae:	00 00 00 
    1db0:	ea 00 44    	add.w     w8, #0xa, w1
    1db2:	6a 80 44    	add.w     w9, #0xa, w0
    1db4:	26 2c 02    	call      0x2c26 <.eb>
    1db6:	00 00 00 
    1db8:	88 00 78    	mov.w     w8, w1
    1dba:	0a 00 78    	mov.w     w10, w0
    1dbc:	ae 29 02    	call      0x29ae <.eb>
    1dbe:	00 00 00 
    1dc0:	00 00 e0    	cp0.w     w0
    1dc2:	e4 ff 32    	bra       Z, 0x1d8c <.L40>
      goto in;
   }
}
    1dc4:	4f 05 78    	mov.w     [--w15], w10
    1dc6:	4f 04 be    	mov.d     [--w15], w8
    1dc8:	00 00 06    	return    
Disassembly of section .text._tn_task_clear_runnable:

00001dca <__tn_task_clear_runnable>:
/**
 * See comment in the _tn_tasks.h file
 */
void _tn_task_clear_runnable(struct TN_Task *task)
{
    1dca:	88 9f be    	mov.d     w8, [w15++]
    1dcc:	8a 1f 78    	mov.w     w10, [w15++]
    1dce:	00 04 78    	mov.w     w0, w8
#if TN_DEBUG
   //-- task_state should be exactly TN_TASK_STATE_RUNNABLE here
   if (task->task_state != TN_TASK_STATE_RUNNABLE){
      _TN_FATAL_ERROR("");
   }

   if (task == &_tn_idle_task){
      //-- idle task should always be runnable
      _TN_FATAL_ERROR("idle task should always be runnable");
   }
#endif

   //TN_BOOL ret = TN_FALSE;

   int priority;
   priority = task->priority;
    1dd0:	78 15 90    	mov.w     [w8+46], w10

   //-- remove runnable state
   task->task_state &= ~TN_TASK_STATE_RUNNABLE;
    1dd2:	08 18 90    	mov.w     [w8+48], w0
    1dd4:	00 00 a1    	bclr.w    w0, #0x0
    1dd6:	00 1c 98    	mov.w     w0, [w8+48]

   //-- remove the curr task from any queue (now - from ready queue)
   if (_remove_entry_from_ready_queue(&(task->task_queue), priority)){
    1dd8:	e4 04 44    	add.w     w8, #0x4, w9
    1dda:	8a 00 78    	mov.w     w10, w1
    1ddc:	09 00 78    	mov.w     w9, w0
    1dde:	d2 25 02    	call      0x25d2 <.eb>
    1de0:	00 00 00 
    1de2:	00 00 e0    	cp0.w     w0
    1de4:	03 00 32    	bra       Z, 0x1dec <.L50>
      //-- No ready tasks for the curr priority

      //-- Find highest priority ready to run -
      //   at least, lowest-priority bit must be set for the idle task
      //   (the exact bit position actually depends on TN_PRIORITIES_CNT value)
      _find_next_task_to_run();
    1de6:	14 29 02    	call      0x2914 <.eb>
    1de8:	00 00 00 
    1dea:	0c 00 37    	bra       0x1e04 <.L51>

00001dec <.L50>:

   } else {
      //-- There are 'ready to run' task(s) for the curr priority

      if (_tn_next_task_to_run == task){
    1dec:	30 64 80    	mov.w     0xc86, w0
    1dee:	88 0f 50    	sub.w     w0, w8, [w15]
    1df0:	09 00 3a    	bra       NZ, 0x1e04 <.L51>
         //-- the task that just became non-runnable was the "next task to run",
         //   so we should select new next task to run
         _tn_next_task_to_run = _tn_get_task_by_tsk_queue(
    1df2:	42 55 dd    	sl.w      w10, #0x2, w10
    1df4:	0a 85 e8    	inc2.w    w10, w10
    1df6:	c0 c3 20    	mov.w     #0xc3c, w0
    1df8:	e0 00 7d    	mov.w     [w0+w10], w1
    1dfa:	00 00 eb    	clr.w     w0
    1dfc:	01 00 e0    	cp0.w     w1
    1dfe:	01 00 32    	bra       Z, 0x1e02 <.L52>
    1e00:	64 80 50    	sub.w     w1, #0x4, w0

00001e02 <.L52>:
    1e02:	30 64 88    	mov.w     w0, 0xc86

00001e04 <.L51>:
               _tn_tasks_ready_list[priority].next
               );

         //-- _tn_next_task_to_run was just altered, so, we should return TN_TRUE
      }
   }

   //-- and reset task's queue
   _tn_list_reset(&(task->task_queue));
    1e04:	09 00 78    	mov.w     w9, w0
    1e06:	04 2d 02    	call      0x2d04 <.eb>
    1e08:	00 00 00 

}
    1e0a:	4f 05 78    	mov.w     [--w15], w10
    1e0c:	4f 04 be    	mov.d     [--w15], w8
    1e0e:	00 00 06    	return    
Disassembly of section .text._task_priority_elevate:

00001e10 <__task_priority_elevate>:
 * If task is waiting for some mutex too, go on to holder of that mutex
 * and elevate its priority too, recursively. And so on.
 */
static _TN_INLINE void _task_priority_elevate(struct TN_Task *task, int priority)
{
    1e10:	88 9f be    	mov.d     w8, [w15++]
    1e12:	8a 1f 78    	mov.w     w10, [w15++]
    1e14:	00 04 be    	mov.d     w0, w8

00001e16 <.L67>:
in:
   //-- transitive priority changing

   // if we have a task A that is blocked by the task B and we changed priority
   // of task A,priority of task B also have to be changed. I.e, if we have
   // the task A that is waiting for the mutex M1 and we changed priority
   // of this task, a task B that holds a mutex M1 now, also needs priority's
   // changing.  Then, if a task B now is waiting for the mutex M2, the same
   // procedure have to be applied to the task C that hold a mutex M2 now
   // and so on.


   if (task->priority <= priority){
    1e16:	78 10 90    	mov.w     [w8+46], w0
    1e18:	89 0f 50    	sub.w     w0, w9, [w15]
    1e1a:	1a 00 34    	bra       LE, 0x1e50 <.L62>
      //-- Task's priority is alreasy higher than given one, so,
      //   don't do anything
   } else if (_tn_task_is_runnable(task)){
      //-- Task is runnable, so, set new priority to it
      //   (for runnable tasks, we should use special function for that)
      _tn_change_running_task_priority(task, priority);
   } else {
      //-- Task is not runnable, so, just set new priority to it
      task->priority = priority;

      //-- and check if the task is waiting for mutex
      if (     (_tn_task_is_waiting(task))
            && (task->task_wait_reason == TN_WAIT_REASON_MUTEX_I)
         )
      {
         //-- Task is waiting for another mutex. In this case, 
         //   call this function again, recursively,
         //   for mutex's holder
         //
         //   NOTE: as a workaround for crappy compilers that don't
         //   know what is tail-recursion, we have to use goto explicitly.
         //   (see SICP, section 1.2.1: Linear Recursion and Iteration)
         //
         //_task_priority_elevate(
         //      _get_mutex_by_wait_queque(task->pwait_queue)->holder,
         //      priority
         //      );

         task = _get_mutex_by_wait_queque(task->pwait_queue)->holder;
         goto in;
      }
   }

}

static _TN_INLINE void _mutex_do_lock(struct TN_Mutex *mutex, struct TN_Task *task)
{
   mutex->holder = task;
   __mutex_lock_cnt_change(mutex, 1);

   //-- Add mutex to task's locked mutexes queue
   _tn_list_add_tail(&(task->mutex_queue), &(mutex->mutex_queue));

   //-- Determine new priority for the task
   {
      int new_priority = _find_max_priority_by_mutex(mutex, task->priority);
      if (task->priority != new_priority){
         _tn_change_task_priority(task, new_priority);
      }
   }

}

#if TN_MUTEX_DEADLOCK_DETECT

/**
 * Link all mutexes and all tasks involved in deadlock together.
 * Should be called when deadlock is detected.
 */
static void _link_deadlock_lists(struct TN_Mutex *mutex, struct TN_Task *task)
{
   struct TN_Task *holder;

in:
   holder = mutex->holder;

   if (     (holder->task_wait_reason != TN_WAIT_REASON_MUTEX_I)
         && (holder->task_wait_reason != TN_WAIT_REASON_MUTEX_C)
      )
   {
      _TN_FATAL_ERROR();
   }

   struct TN_Mutex *mutex2 = _get_mutex_by_wait_queque(holder->pwait_queue);

   //-- link two tasks together
   _tn_list_add_tail(&task->deadlock_list, &holder->deadlock_list); 

   //-- link two mutexes together
   _tn_list_add_head(&mutex->deadlock_list, &mutex2->deadlock_list); 

   if (_tn_is_mutex_locked_by_task(task, mutex2)){
      //-- done; all mutexes and tasks involved in deadlock were linked together.
      //   will return now.
   } else {
      //-- call this function again, recursively
      //
      //   NOTE: as a workaround for crappy compilers that don't
      //   know what is tail-recursion, we have to use goto explicitly.
      //   (see SICP, section 1.2.1: Linear Recursion and Iteration)
      //
      //_link_deadlock_lists(mutex2, task);

      mutex = mutex2;
      goto in;
   }
}

/**
 * Unlink deadlock lists (for mutexes and tasks involved)
 */
static void _unlink_deadlock_lists(struct TN_Mutex *mutex, struct TN_Task *task)
{
   struct TN_ListItem *item;
   struct TN_ListItem *tmp_item;

   //-- unlink list of mutexes
   _tn_list_for_each_safe(item, tmp_item, &mutex->deadlock_list){
      _tn_list_remove_entry(item);
      _tn_list_reset(item);
   }

   //-- unlink list of tasks
   _tn_list_for_each_safe(item, tmp_item, &task->deadlock_list){
      _tn_list_remove_entry(item);
      _tn_list_reset(item);
   }

}

/**
 * Should be called whenever task wanted to lock mutex, but it is already 
 * locked, so, task was just added to mutex's wait_queue.
 *
 * Checks for deadlock; if it is detected, flag TN_STATE_FLAG__DEADLOCK is set.
 */
static void _check_deadlock_active(struct TN_Mutex *mutex, struct TN_Task *task)
{
   struct TN_Task *holder;

in:
   holder = mutex->holder;
   if (     (_tn_task_is_waiting(task))
         && (
               (holder->task_wait_reason == TN_WAIT_REASON_MUTEX_I)
            || (holder->task_wait_reason == TN_WAIT_REASON_MUTEX_C)
            )
      )
   {
      //-- holder is waiting for another mutex (mutex2). In this case, 
      //   check against task's locked mutexes list; if mutex2 is
      //   there - deadlock.
      //
      //   Otherwise, get holder of mutex2 and call this function
      //   again, recursively.

      struct TN_Mutex *mutex2 = _get_mutex_by_wait_queque(holder->pwait_queue);
      if (_tn_is_mutex_locked_by_task(task, mutex2)){
         //-- link all mutexes and all tasks involved in the deadlock
         _link_deadlock_lists(
               _get_mutex_by_wait_queque(task->pwait_queue),
               task
               );

         //-- cry deadlock active
         //   (user will be notified if he has set callback with
         //   tn_callback_deadlock_set()) NOTE: we should call this function
         //   _after_ calling _link_deadlock_lists(), so that user may examine
         //   mutexes and tasks involved in deadlock.
         _tn_cry_deadlock(TN_TRUE, mutex, task);
      } else {
         //-- call this function again, recursively
         //
         //   NOTE: as a workaround for crappy compilers that don't
         //   know what is tail-recursion, we have to use goto explicitly.
         //   (see SICP, section 1.2.1: Linear Recursion and Iteration)
         //
         //_check_deadlock_active(mutex2, task);

         mutex = mutex2;
         goto in;
      }

   } else {
      //-- no deadlock: holder of given mutex isn't waiting for another mutex
   }
}

/**
 * If deadlock was active with given task and mutex involved,
 * cry that deadlock becomes inactive,
 * and unlink deadlock lists (for mutexes and tasks involved)
 */
static void _cry_deadlock_inactive(struct TN_Mutex *mutex, struct TN_Task *task)
{
   if (!_tn_list_is_empty(&mutex->deadlock_list)){

      if (_tn_list_is_empty(&task->deadlock_list)){
         //-- should never be here: deadlock lists for tasks and mutexes
         //   should either be both non-empty or both empty
         _TN_FATAL_ERROR();
      }

      //-- cry that deadlock becomes inactive
      //   (user will be notified if he has set callback with
      //   tn_callback_deadlock_set()) NOTE: we should call this function
      //   _before_ calling _unlink_deadlock_lists(), so that user may examine
      //   mutexes and tasks involved in deadlock.
      _tn_cry_deadlock(TN_FALSE, mutex, task);

      //-- unlink deadlock lists (for mutexes and tasks involved)
      _unlink_deadlock_lists(mutex, task);
   }

}
#else
static void _check_deadlock_active(struct TN_Mutex *mutex, struct TN_Task *task)
{}
static void _cry_deadlock_inactive(struct TN_Mutex *mutex, struct TN_Task *task)
{}
#endif

static _TN_INLINE void _add_curr_task_to_mutex_wait_queue(
      struct TN_Mutex *mutex,
      TN_TickCnt timeout
      )
{
   enum TN_WaitReason wait_reason;

   if (mutex->protocol == TN_MUTEX_PROT_INHERIT){
      //-- Priority inheritance protocol

      //-- if run_task curr priority higher holder's curr priority
      if (_tn_curr_run_task->priority < mutex->holder->priority){
         _task_priority_elevate(mutex->holder, _tn_curr_run_task->priority);
      }

      wait_reason = TN_WAIT_REASON_MUTEX_I;
   } else {
      //-- Priority ceiling protocol
      wait_reason = TN_WAIT_REASON_MUTEX_C;
   }

   _tn_task_curr_to_wait_action(&(mutex->wait_queue), wait_reason, timeout);

   //-- check if there is deadlock
   _check_deadlock_active(mutex, _tn_curr_run_task);
}

/**
 *    * Unconditionally set lock count to 0. This is needed because mutex
 *      might be deleted 'unexpectedly' when its holder task is deleted
 *    * Remove given mutex from task's locked mutexes list,
 *    * Set new priority of the task
 *      (depending on its base_priority and other locked mutexes),
 *    * If no other tasks want to lock this mutex, set holder to TN_NULL,
 *      otherwise grab first task from the mutex's wait_queue
 *      and lock mutex by this task.
 *
 * @returns TN_TRUE if context switch is needed
 *          (that is, if there is some other task that waited for mutex,
 *          and this task has highest priority now)
 */
static void _mutex_do_unlock(struct TN_Mutex * mutex)
{
   //-- explicitly reset lock count to 0, because it might be not zero
   //   if mutex is unlocked because task is being deleted.
   mutex->cnt = 0;

   //-- Delete curr mutex from task's locked mutexes queue
   _tn_list_remove_entry(&(mutex->mutex_queue));

   //-- update priority for current holder
   _update_task_priority(mutex->holder);

   //-- Check for the task(s) that want to lock the mutex
   if (_tn_list_is_empty(&(mutex->wait_queue))){
      //-- no more tasks want to lock the mutex,
      //   so, set holder to TN_NULL and return.
      mutex->holder = TN_NULL;
   } else {
      //-- there are tasks that want to lock the mutex,
      //   so, lock it by the first task in the queue

      struct TN_Task *task;

      //-- get first task from mutex's wait_queue
      task = _tn_list_first_entry(
            &(mutex->wait_queue), struct TN_Task, task_queue
            );

      //-- wake it up.
      //   Note: _update_task_priority() for current holder
      //   of mutex will be eventually called from:
      //    _tn_task_wait_complete ->
      //       _tn_task_clear_waiting ->
      //          _on_task_wait_complete ->
      //             _tn_mutex_i_on_task_wait_complete().
      //
      //   But, we have already called it above. It would be
      //   not so efficient to perform the same job twice,
      //   so, special flag invented: priority_already_updated.
      //   It's probably not so elegant, but I believe it is
      //   acceptable tradeoff in the name of efficiency.
      //
      //   NOTE that we can't remove the above call _update_task_priority(),
      //   because it then won't be called if nobody waited for mutex.
      mutex->holder->priority_already_updated = TN_TRUE;
      _tn_task_wait_complete(task, TN_RC_OK);
      mutex->holder->priority_already_updated = TN_FALSE;

      //-- lock mutex by it
      _mutex_do_lock(mutex, task);
   }
}

/**
 * Update priority of the holder of mutex which `task` was waiting for. If the
 * holder itself waits for some mutex2, update priority of mutex2's holder, and
 * so on, recursively.
 *
 * Say, we have the following arrangement:
 *
 * - `task_a` locked mutex M1:               `task_a` is runnable;
 * - `task_b` locked mutex M2, waits for M1: `task_b` is waiting;
 * - `task_c`                  waits for M2: `task_c` is waiting.
 * 
 * Now, `task_c` finishes waiting for mutex by timeout, and
 * `_update_holders_priority_recursive(task_c)` is eventually called.
 *
 * First, we get `task_b` since it is a holder of M2 which `task_c` was waiting
 * for. So, priority of `task_b` is updated.
 *
 * Then, we get `task_a` since it is a holder of M1 which `task_b` is waiting
 * for. So, priority of `task_a` is updated.
 *
 * Then we see that `task_a` doesn't wait for any mutex, and the function 
 * returns.
 *
 * Preconditions:
 *
 * - `task->pwait_queue` should point to the mutex wait queue;
 * - `mutex->holder` should point to the holder.
 *
 */
static void _update_holders_priority_recursive(struct TN_Task *task)
{
   struct TN_Task *holder;

in:
   //-- get the holder of mutex for which `task` is/was waiting for.
   //   NOTE that this holder might still hold the mutex
   //   (if `task` stopped waiting by timeout), or it might
   //   already release it. In either case, `mutex->holder` still
   //   points to the task which is/was holding the mutex.
   holder = _get_mutex_by_wait_queque(task->pwait_queue)->holder;

   //-- now, `holder` points to the (ex-)holder, i.e. to the task which is/was
   //   holding the mutex. Now, we iterate through all the mutexes that are
   //   still held by (ex-)holder, determining new priority for (ex-)holder.
   _update_task_priority(holder);

   //-- and check if the (ex-)holder is also waiting for some other mutex
   if (     (_tn_task_is_waiting(holder))
         && (holder->task_wait_reason == TN_WAIT_REASON_MUTEX_I)
      )
   {
      //-- holder is waiting for another mutex. In this case, call this
      //   function again, recursively, for the holder.
      //
      //   NOTE: as a workaround for crappy compilers that don't
      //   know what is tail-recursion, we have to use goto explicitly.
      //   (see SICP, section 1.2.1: Linear Recursion and Iteration)
      //
      //_update_holders_priority_recursive(holder);

      task = holder;
      goto in;
   }
}



/*******************************************************************************
 *    PUBLIC FUNCTIONS
 ******************************************************************************/

/*
 * See comments in the header file (tn_mutex.h)
 */
enum TN_RCode tn_mutex_create(
      struct TN_Mutex        *mutex,
      enum TN_MutexProtocol   protocol,
      int                     ceil_priority
      )
{
   enum TN_RCode rc = _check_param_create(mutex, protocol, ceil_priority);

   if (rc != TN_RC_OK){
      //-- just return rc as it is
   } else {

      _tn_list_reset(&(mutex->wait_queue));
      _tn_list_reset(&(mutex->mutex_queue));
#if TN_MUTEX_DEADLOCK_DETECT
      _tn_list_reset(&(mutex->deadlock_list));
#endif

      mutex->protocol      = protocol;
      mutex->holder        = TN_NULL;
      mutex->ceil_priority = ceil_priority;
      mutex->cnt           = 0;
      mutex->id_mutex      = TN_ID_MUTEX;
   }

   return rc;
}

/*
 * See comments in the header file (tn_mutex.h)
 */
enum TN_RCode tn_mutex_delete(struct TN_Mutex *mutex)
{
   enum TN_RCode rc = _check_param_generic(mutex);

   if (rc != TN_RC_OK){
      //-- just return rc as it is
   } else if (!tn_is_task_context()){
      rc = TN_RC_WCONTEXT;
   } else {
      TN_INTSAVE_DATA;

      TN_INT_DIS_SAVE();

      //-- mutex can be deleted if only it isn't held 
      if (mutex->holder != TN_NULL && mutex->holder != _tn_curr_run_task){
         rc = TN_RC_ILLEGAL_USE;
      } else {

         //-- Remove all tasks (if any) from mutex's wait queue
         _tn_wait_queue_notify_deleted(&(mutex->wait_queue));

         if (mutex->holder != TN_NULL){
            //-- If the mutex is locked
            _mutex_do_unlock(mutex);

            //-- NOTE: redundant reset, because it will anyway
            //         be reset in tn_mutex_create()
            //
            //         Probably we need to remove it.
            _tn_list_reset(&(mutex->mutex_queue));
         }

         mutex->id_mutex = TN_ID_NONE; //-- mutex does not exist now

      }

      TN_INT_RESTORE();

      //-- we might need to switch context if _tn_wait_queue_notify_deleted()
      //   has woken up some high-priority task
      _tn_context_switch_pend_if_needed();
   }

   return rc;
}

/*
 * See comments in the header file (tn_mutex.h)
 */
enum TN_RCode tn_mutex_lock(struct TN_Mutex *mutex, TN_TickCnt timeout)
{
   enum TN_RCode rc = _check_param_generic(mutex);
   TN_BOOL waited_for_mutex = TN_FALSE;

   if (rc != TN_RC_OK){
      //-- just return rc as it is
   } else if (!tn_is_task_context()){
      rc = TN_RC_WCONTEXT;
   } else {
      TN_INTSAVE_DATA;

      TN_INT_DIS_SAVE();

      if (_tn_curr_run_task == mutex->holder){
         //-- mutex is already locked by current task
         //   if recursive locking enabled (TN_MUTEX_REC), increment lock count,
         //   otherwise error is returned
         __mutex_lock_cnt_change(mutex, 1);
         rc = __MUTEX_REC_LOCK_RETVAL;

      } else if (
            mutex->protocol == TN_MUTEX_PROT_CEILING
            && _tn_curr_run_task->base_priority < mutex->ceil_priority
            )
      {
         //-- base priority of current task higher
         rc = TN_RC_ILLEGAL_USE;

      } else if (mutex->holder == TN_NULL){
         //-- mutex is not locked, let's lock it

         //-- TODO: probably, we should add special flag to _mutex_do_lock,
         //   something like "other_tasks_can_wait", and set it to false here.
         //   When _mutex_do_lock() is called from _mutex_do_unlock(), this flag
         //   should be set to true there.
         //   _mutex_do_lock() should forward this flag to _find_max_priority_by_mutex(),
         //   and if that flag is false, _find_max_priority_by_mutex() should not
         //   call _find_max_blocked_priority().
         //   We could save about 30 cycles then. =)
         _mutex_do_lock(mutex, _tn_curr_run_task);

      } else {
         //-- mutex is already locked

         if (timeout == 0){
            //-- in polling mode, just return TN_RC_TIMEOUT
            rc = TN_RC_TIMEOUT;
         } else {
            //-- timeout specified, so, wait until mutex is free or timeout expired
            _add_curr_task_to_mutex_wait_queue(mutex, timeout);

            waited_for_mutex = TN_TRUE;

            //-- rc will be set later to _tn_curr_run_task->task_wait_rc;
         }
      }

#if TN_DEBUG
      if (!_tn_need_context_switch() && waited_for_mutex){
         _TN_FATAL_ERROR("");
      }
#endif

      TN_INT_RESTORE();
      _tn_context_switch_pend_if_needed();
      if (waited_for_mutex){
         //-- get wait result
         rc = _tn_curr_run_task->task_wait_rc;
      }
   }

   return rc;
}

/*
 * See comments in the header file (tn_mutex.h)
 */
enum TN_RCode tn_mutex_lock_polling(struct TN_Mutex *mutex)
{
   return tn_mutex_lock(mutex, 0);
}


/*
 * See comments in the header file (tn_mutex.h)
 */
enum TN_RCode tn_mutex_unlock(struct TN_Mutex *mutex)
{
   enum TN_RCode rc = _check_param_generic(mutex);

   if (rc != TN_RC_OK){
      //-- just return rc as it is
   } else if (!tn_is_task_context()){
      rc = TN_RC_WCONTEXT;
   } else {
      TN_INTSAVE_DATA;

      TN_INT_DIS_SAVE();

      //-- unlocking is enabled only for the owner and already locked mutex
      if (_tn_curr_run_task != mutex->holder){
         rc = TN_RC_ILLEGAL_USE;
      } else {

         //-- decrement lock count (if recursive locking is enabled)
         __mutex_lock_cnt_change(mutex, -1);

         if (mutex->cnt > 0){
            //-- there was recursive lock, so here we just decremented counter, 
            //   but don't unlock the mutex. 
            //   We're done, TN_RC_OK will be returned.
         } else if (mutex->cnt < 0){
            //-- should never be here: lock count is negative.
            //   Bug in the kernel, or memory got corrupted.
            _TN_FATAL_ERROR();
         } else {
            //-- lock counter is 0, so, unlock mutex
            _mutex_do_unlock(mutex);
         }

      }

      TN_INT_RESTORE();
      _tn_context_switch_pend_if_needed();
   }

   return rc;

}





/*******************************************************************************
 *    INTERNAL TNKERNEL FUNCTIONS
 ******************************************************************************/

/**
 * See comment in _tn_mutex.h file
 */
void _tn_mutex_unlock_all_by_task(struct TN_Task *task)
{
   struct TN_Mutex *mutex;       //-- "cursor" for the loop iteration
   struct TN_Mutex *tmp_mutex;   //-- we need for temporary item because
                                 //   item is removed from the list
                                 //   in _mutex_do_unlock().

   _tn_list_for_each_entry_safe(
         mutex, struct TN_Mutex, tmp_mutex, &(task->mutex_queue), mutex_queue
         )
   {
      //-- NOTE: we don't remove item from the list, because it is removed
      //   inside _mutex_do_unlock().
      _mutex_do_unlock(mutex);
   }
}


/**
 * See comments in _tn_mutex.h file
 */
void _tn_mutex_i_on_task_wait_complete(struct TN_Task *task)
{
   //-- NOTE: task->task_wait_reason should be TN_WAIT_REASON_MUTEX_I here
#if TN_DEBUG
   if (task->task_wait_reason != TN_WAIT_REASON_MUTEX_I){
      _TN_FATAL_ERROR();
   }
#endif

   if (task->priority_already_updated){
      //-- priority is already updated (in _mutex_do_unlock)
      //   so, just do nothing here
      //   (flag will be cleared in _mutex_do_unlock 
      //   when we exit from `_tn_task_wait_complete()`)
   } else {
      //-- Update priority of the holder of mutex which `task` was waiting
      //   for. If the holder itself waits for some mutex2, update priority
      //   of mutex2's holder, and so on, recursively.
      //
      //   See comments for `_update_holders_priority_recursive()` for details.
      _update_holders_priority_recursive(task);
   }

}

/**
 * See comments in _tn_mutex.h file
 */
void _tn_mutex_on_task_wait_complete(struct TN_Task *task)
{
   //-- if deadlock was active with given task involved,
   //   it means that deadlock becomes inactive. So, notify user about it
   //   and unlink deadlock lists (for mutexes and tasks involved)
   _cry_deadlock_inactive(
         _get_mutex_by_wait_queque(task->pwait_queue),
         task
         );
}
    1e1c:	08 1d 90    	mov.w     [w8+48], w10
    1e1e:	0a 00 78    	mov.w     w10, w0
    1e20:	38 2d 02    	call      0x2d38 <.eb>
    1e22:	00 00 00 
    1e24:	00 00 e0    	cp0.w     w0
    1e26:	04 00 32    	bra       Z, 0x1e30 <.L65>
    1e28:	08 00 be    	mov.d     w8, w0
    1e2a:	86 22 02    	call      0x2286 <.eb>
    1e2c:	00 00 00 
    1e2e:	10 00 37    	bra       0x1e50 <.L62>

00001e30 <.L65>:
    1e30:	79 14 98    	mov.w     w9, [w8+46]
    1e32:	0a 00 78    	mov.w     w10, w0
    1e34:	0a 2d 02    	call      0x2d0a <.eb>
    1e36:	00 00 00 
    1e38:	00 00 e0    	cp0.w     w0
    1e3a:	0a 00 32    	bra       Z, 0x1e50 <.L62>
    1e3c:	18 18 90    	mov.w     [w8+50], w0
    1e3e:	e7 0f 50    	sub.w     w0, #0x7, [w15]
    1e40:	07 00 3a    	bra       NZ, 0x1e50 <.L62>
    1e42:	b8 08 90    	mov.w     [w8+22], w1
    1e44:	00 00 eb    	clr.w     w0
    1e46:	01 00 e0    	cp0.w     w1
    1e48:	01 00 32    	bra       Z, 0x1e4c <.L66>
    1e4a:	01 80 e9    	dec2.w    w1, w0

00001e4c <.L66>:
    1e4c:	00 0c 90    	mov.w     [w0+16], w8
    1e4e:	e3 ff 37    	bra       0x1e16 <.L67>

00001e50 <.L62>:
    1e50:	4f 05 78    	mov.w     [--w15], w10
    1e52:	4f 04 be    	mov.d     [--w15], w8
    1e54:	00 00 06    	return    
Disassembly of section .text._mutex_do_unlock:

00001e56 <__mutex_do_unlock>:
 *          (that is, if there is some other task that waited for mutex,
 *          and this task has highest priority now)
 */
static void _mutex_do_unlock(struct TN_Mutex * mutex)
{
    1e56:	88 9f be    	mov.d     w8, [w15++]
    1e58:	00 04 78    	mov.w     w0, w8
   //-- explicitly reset lock count to 0, because it might be not zero
   //   if mutex is unlocked because task is being deleted.
   mutex->cnt = 0;
    1e5a:	80 04 eb    	clr.w     w9
    1e5c:	29 0c 98    	mov.w     w9, [w8+20]

   //-- Delete curr mutex from task's locked mutexes queue
   _tn_list_remove_entry(&(mutex->mutex_queue));
    1e5e:	66 00 44    	add.w     w8, #0x6, w0
    1e60:	3e 2c 02    	call      0x2c3e <.eb>
    1e62:	00 00 00 

   //-- update priority for current holder
   _update_task_priority(mutex->holder);
    1e64:	08 08 90    	mov.w     [w8+16], w0
    1e66:	ca 24 02    	call      0x24ca <__update_task_priority>
    1e68:	00 00 00 

   //-- Check for the task(s) that want to lock the mutex
   if (_tn_list_is_empty(&(mutex->wait_queue))){
    1e6a:	08 80 e8    	inc2.w    w8, w0
    1e6c:	3c 2a 02    	call      0x2a3c <.eb>
    1e6e:	00 00 00 
    1e70:	00 00 e0    	cp0.w     w0
    1e72:	02 00 32    	bra       Z, 0x1e78 <.L86>
      //-- no more tasks want to lock the mutex,
      //   so, set holder to TN_NULL and return.
      mutex->holder = TN_NULL;
    1e74:	09 0c 98    	mov.w     w9, [w8+16]
    1e76:	10 00 37    	bra       0x1e98 <.L85>

00001e78 <.L86>:
   } else {
      //-- there are tasks that want to lock the mutex,
      //   so, lock it by the first task in the queue

      struct TN_Task *task;

      //-- get first task from mutex's wait_queue
      task = _tn_list_first_entry(
    1e78:	a8 04 90    	mov.w     [w8+4], w9
    1e7a:	e4 84 54    	sub.w     w9, #0x4, w9
            &(mutex->wait_queue), struct TN_Task, task_queue
            );

      //-- wake it up.
      //   Note: _update_task_priority() for current holder
      //   of mutex will be eventually called from:
      //    _tn_task_wait_complete ->
      //       _tn_task_clear_waiting ->
      //          _on_task_wait_complete ->
      //             _tn_mutex_i_on_task_wait_complete().
      //
      //   But, we have already called it above. It would be
      //   not so efficient to perform the same job twice,
      //   so, special flag invented: priority_already_updated.
      //   It's probably not so elegant, but I believe it is
      //   acceptable tradeoff in the name of efficiency.
      //
      //   NOTE that we can't remove the above call _update_task_priority(),
      //   because it then won't be called if nobody waited for mutex.
      mutex->holder->priority_already_updated = TN_TRUE;
    1e7c:	88 08 90    	mov.w     [w8+16], w1
    1e7e:	01 20 90    	mov.w     [w1+64], w0
    1e80:	00 00 a0    	bset.w    w0, #0x0
    1e82:	80 20 98    	mov.w     w0, [w1+64]
      _tn_task_wait_complete(task, TN_RC_OK);
    1e84:	09 00 78    	mov.w     w9, w0
    1e86:	0c 28 02    	call      0x280c <.eb>
    1e88:	00 00 00 
      mutex->holder->priority_already_updated = TN_FALSE;
    1e8a:	88 08 90    	mov.w     [w8+16], w1
    1e8c:	01 20 90    	mov.w     [w1+64], w0
    1e8e:	00 00 a1    	bclr.w    w0, #0x0
    1e90:	80 20 98    	mov.w     w0, [w1+64]

      //-- lock mutex by it
      _mutex_do_lock(mutex, task);
    1e92:	08 00 be    	mov.d     w8, w0
    1e94:	80 23 02    	call      0x2380 <.eb>
    1e96:	00 00 00 

00001e98 <.L85>:
   }
}
    1e98:	4f 04 be    	mov.d     [--w15], w8
    1e9a:	00 00 06    	return    
Disassembly of section .text._tn_task_first_wait_complete:

00001e9c <__tn_task_first_wait_complete>:
      _TN_CBBeforeTaskWaitComplete *callback,
      void                         *user_data_1,
      void                         *user_data_2
      )
{
    1e9c:	88 9f be    	mov.d     w8, [w15++]
    1e9e:	8a 9f be    	mov.d     w10, [w15++]
    1ea0:	8c 1f 78    	mov.w     w12, [w15++]
    1ea2:	80 04 78    	mov.w     w0, w9
    1ea4:	01 05 78    	mov.w     w1, w10
    1ea6:	02 04 78    	mov.w     w2, w8
    1ea8:	83 05 78    	mov.w     w3, w11
    1eaa:	04 06 78    	mov.w     w4, w12
   TN_BOOL ret = TN_FALSE;

   if (!(_tn_list_is_empty(wait_queue))){
    1eac:	09 00 78    	mov.w     w9, w0
    1eae:	3c 2a 02    	call      0x2a3c <.eb>
    1eb0:	00 00 00 
    1eb2:	80 00 78    	mov.w     w0, w1
    1eb4:	00 00 eb    	clr.w     w0
    1eb6:	01 00 e0    	cp0.w     w1
    1eb8:	0d 00 3a    	bra       NZ, 0x1ed4 <.L124>
      struct TN_Task *task;
      //-- there are tasks in the wait queue, so, wake up the first one

      //-- get first task from the wait_queue
      task = _tn_list_first_entry(wait_queue, struct TN_Task, task_queue);
    1eba:	99 04 90    	mov.w     [w9+2], w9
    1ebc:	e4 84 54    	sub.w     w9, #0x4, w9

      //-- call provided callback (if any)
      if (callback != TN_NULL){
    1ebe:	08 00 e0    	cp0.w     w8
    1ec0:	04 00 32    	bra       Z, 0x1eca <.L125>
         callback(task, user_data_1, user_data_2);
    1ec2:	0c 01 78    	mov.w     w12, w2
    1ec4:	8b 00 78    	mov.w     w11, w1
    1ec6:	09 00 78    	mov.w     w9, w0
    1ec8:	08 00 01    	call      w8

00001eca <.L125>:
      }

      //-- wake task up
      _tn_task_wait_complete(task, wait_rc);
    1eca:	8a 00 78    	mov.w     w10, w1
    1ecc:	09 00 78    	mov.w     w9, w0
    1ece:	4c 28 02    	call      0x284c <.eb>
    1ed0:	00 00 00 

      //-- indicate that some task has been woken up
      ret = TN_TRUE;
    1ed2:	10 00 20    	mov.w     #0x1, w0

00001ed4 <.L124>:
   }

   return ret;
}
    1ed4:	4f 06 78    	mov.w     [--w15], w12
    1ed6:	4f 05 be    	mov.d     [--w15], w10
    1ed8:	4f 04 be    	mov.d     [--w15], w8
    1eda:	00 00 06    	return    
Disassembly of section .text.tn_mutex_create:

00001edc <_tn_mutex_create>:
      struct TN_Mutex        *mutex,
      enum TN_MutexProtocol   protocol,
      int                     ceil_priority
      )
{
    1edc:	88 9f be    	mov.d     w8, [w15++]
    1ede:	8a 9f be    	mov.d     w10, [w15++]
    1ee0:	00 04 78    	mov.w     w0, w8
    1ee2:	01 05 78    	mov.w     w1, w10
    1ee4:	82 04 78    	mov.w     w2, w9
   enum TN_RCode rc = _check_param_create(mutex, protocol, ceil_priority);
    1ee6:	09 01 78    	mov.w     w9, w2
    1ee8:	8a 00 78    	mov.w     w10, w1
    1eea:	08 00 78    	mov.w     w8, w0
    1eec:	ba 22 02    	call      0x22ba <.eb>
    1eee:	00 00 00 
    1ef0:	80 05 78    	mov.w     w0, w11

   if (rc != TN_RC_OK){
    1ef2:	0b 00 e0    	cp0.w     w11
    1ef4:	0f 00 3a    	bra       NZ, 0x1f14 <.L89>
      //-- just return rc as it is
   } else {

      _tn_list_reset(&(mutex->wait_queue));
    1ef6:	08 80 e8    	inc2.w    w8, w0
    1ef8:	04 2d 02    	call      0x2d04 <.eb>
    1efa:	00 00 00 
      _tn_list_reset(&(mutex->mutex_queue));
    1efc:	66 00 44    	add.w     w8, #0x6, w0
    1efe:	04 2d 02    	call      0x2d04 <.eb>
    1f00:	00 00 00 
#if TN_MUTEX_DEADLOCK_DETECT
      _tn_list_reset(&(mutex->deadlock_list));
    1f02:	6a 00 44    	add.w     w8, #0xa, w0
    1f04:	04 2d 02    	call      0x2d04 <.eb>
    1f06:	00 00 00 
#endif

      mutex->protocol      = protocol;
    1f08:	7a 04 98    	mov.w     w10, [w8+14]
      mutex->holder        = TN_NULL;
    1f0a:	0b 0c 98    	mov.w     w11, [w8+16]
      mutex->ceil_priority = ceil_priority;
    1f0c:	19 0c 98    	mov.w     w9, [w8+18]
      mutex->cnt           = 0;
    1f0e:	2b 0c 98    	mov.w     w11, [w8+20]
      mutex->id_mutex      = TN_ID_MUTEX;
    1f10:	50 e4 29    	mov.w     #0x9e45, w0
    1f12:	00 0c 78    	mov.w     w0, [w8]

00001f14 <.L89>:
   }

   return rc;
}
    1f14:	0b 00 78    	mov.w     w11, w0
    1f16:	4f 05 be    	mov.d     [--w15], w10
    1f18:	4f 04 be    	mov.d     [--w15], w8
    1f1a:	00 00 06    	return    
Disassembly of section .text._tn_cry_deadlock:

00001f1c <__tn_cry_deadlock>:
/**
 * See comments in the file _tn_sys.h
 */
void _tn_cry_deadlock(TN_BOOL active, struct TN_Mutex *mutex, struct TN_Task *task)
{
    1f1c:	88 9f be    	mov.d     w8, [w15++]
    1f1e:	8a 1f 78    	mov.w     w10, [w15++]
    1f20:	00 04 be    	mov.d     w0, w8
    1f22:	02 05 78    	mov.w     w2, w10
    1f24:	d0 61 80    	mov.w     0xc3a, w0
   if (active){
    1f26:	08 00 e0    	cp0.w     w8
    1f28:	09 00 32    	bra       Z, 0x1f3c <.L58>
      //-- deadlock just became active
      if (_tn_deadlocks_cnt == 0){
    1f2a:	00 00 e0    	cp0.w     w0
    1f2c:	03 00 3a    	bra       NZ, 0x1f34 <.L59>
         _tn_sys_state_flags_set(TN_STATE_FLAG__DEADLOCK);
    1f2e:	20 00 20    	mov.w     #0x2, w0
    1f30:	1a 2c 02    	call      0x2c1a <.eb>
    1f32:	00 00 00 

00001f34 <.L59>:
      }

      _tn_deadlocks_cnt++;
    1f34:	d0 61 80    	mov.w     0xc3a, w0
    1f36:	00 00 e8    	inc.w     w0, w0
    1f38:	d0 61 88    	mov.w     w0, 0xc3a
    1f3a:	06 00 37    	bra       0x1f48 <.L60>

00001f3c <.L58>:
   } else {
      //-- deadlock just became inactive
      _tn_deadlocks_cnt--;
    1f3c:	00 00 e9    	dec.w     w0, w0
    1f3e:	d0 61 88    	mov.w     w0, 0xc3a

      if (_tn_deadlocks_cnt == 0){
    1f40:	03 00 3a    	bra       NZ, 0x1f48 <.L60>
         _tn_sys_state_flags_clear(TN_STATE_FLAG__DEADLOCK);
    1f42:	20 00 20    	mov.w     #0x2, w0
    1f44:	ba 2b 02    	call      0x2bba <__tn_sys_state_flags_clear>
    1f46:	00 00 00 

00001f48 <.L60>:
      }
   }

   //-- if user has specified callback function for deadlock detection,
   //   notify him by calling this function
   if (_tn_cb_deadlock != TN_NULL){
    1f48:	c3 61 80    	mov.w     0xc38, w3
    1f4a:	03 00 e0    	cp0.w     w3
    1f4c:	03 00 32    	bra       Z, 0x1f54 <.L57>
      _tn_cb_deadlock(active, mutex, task);
    1f4e:	0a 01 78    	mov.w     w10, w2
    1f50:	08 00 be    	mov.d     w8, w0
    1f52:	03 00 01    	call      w3

00001f54 <.L57>:
   }

}
    1f54:	4f 05 78    	mov.w     [--w15], w10
    1f56:	4f 04 be    	mov.d     [--w15], w8
    1f58:	00 00 06    	return    
Disassembly of section .text.tn_sem_delete:

00001f5a <_tn_sem_delete>:
/*
 * See comments in the header file (tn_sem.h)
 */
enum TN_RCode tn_sem_delete(struct TN_Sem * sem)
{
    1f5a:	88 9f be    	mov.d     w8, [w15++]
    1f5c:	8a 1f 78    	mov.w     w10, [w15++]
    1f5e:	80 04 78    	mov.w     w0, w9
   //-- perform additional params checking (if enabled by TN_CHECK_PARAM)
   enum TN_RCode rc = _check_param_generic(sem);
    1f60:	09 00 78    	mov.w     w9, w0
    1f62:	de 29 02    	call      0x29de <.eb>
    1f64:	00 00 00 
    1f66:	00 04 78    	mov.w     w0, w8

   if (rc != TN_RC_OK){
    1f68:	08 00 e0    	cp0.w     w8
    1f6a:	12 00 3a    	bra       NZ, 0x1f90 <.L38>
      //-- just return rc as it is
   } else if (!tn_is_task_context()){
    1f6c:	30 2b 02    	call      0x2b30 <.eb>
    1f6e:	00 00 00 
    1f70:	00 00 e0    	cp0.w     w0
    1f72:	0d 00 32    	bra       Z, 0x1f8e <.L39>
      rc = TN_RC_WCONTEXT;
   } else {
      TN_INTSAVE_DATA;

      TN_INT_DIS_SAVE();
    1f74:	8a 16 02    	call      0x168a <_tn_arch_sr_save_int_dis>
    1f76:	00 00 00 
    1f78:	00 05 78    	mov.w     w0, w10

      //-- Remove all tasks from wait queue, returning the TN_RC_DELETED code.
      _tn_wait_queue_notify_deleted(&(sem->wait_queue));
    1f7a:	09 80 e8    	inc2.w    w9, w0
    1f7c:	8a 27 02    	call      0x278a <.eb>
    1f7e:	00 00 00 

      sem->id_sem = TN_ID_NONE;        //-- Semaphore does not exist now
    1f80:	80 0c eb    	clr.w     [w9]
      TN_INT_RESTORE();
    1f82:	0a 00 78    	mov.w     w10, w0
    1f84:	98 16 02    	call      0x1698 <_tn_arch_sr_restore>
    1f86:	00 00 00 

      //-- we might need to switch context if _tn_wait_queue_notify_deleted()
      //   has woken up some high-priority task
      _tn_context_switch_pend_if_needed();
    1f88:	c8 2b 02    	call      0x2bc8 <.eb>
    1f8a:	00 00 00 
    1f8c:	01 00 37    	bra       0x1f90 <.L38>

00001f8e <.L39>:
    1f8e:	d8 ff 2f    	mov.w     #0xfffd, w8

00001f90 <.L38>:
   }
   return rc;
}
    1f90:	08 00 78    	mov.w     w8, w0
    1f92:	4f 05 78    	mov.w     [--w15], w10
    1f94:	4f 04 be    	mov.d     [--w15], w8
    1f96:	00 00 06    	return    
Disassembly of section .text._add_curr_task_to_mutex_wait_queue:

00001f98 <__add_curr_task_to_mutex_wait_queue>:
static _TN_INLINE void _add_curr_task_to_mutex_wait_queue(
      struct TN_Mutex *mutex,
      TN_TickCnt timeout
      )
{
    1f98:	04 00 fa    	lnk       #0x4
    1f9a:	88 9f be    	mov.d     w8, [w15++]
    1f9c:	00 04 78    	mov.w     w0, w8
   enum TN_WaitReason wait_reason;

   if (mutex->protocol == TN_MUTEX_PROT_INHERIT){
    1f9e:	78 00 90    	mov.w     [w8+14], w0
      //-- Priority inheritance protocol

      //-- if run_task curr priority higher holder's curr priority
      if (_tn_curr_run_task->priority < mutex->holder->priority){
         _task_priority_elevate(mutex->holder, _tn_curr_run_task->priority);
      }

      wait_reason = TN_WAIT_REASON_MUTEX_I;
   } else {
      //-- Priority ceiling protocol
      wait_reason = TN_WAIT_REASON_MUTEX_C;
    1fa0:	69 00 20    	mov.w     #0x6, w9
    1fa2:	e2 0f 50    	sub.w     w0, #0x2, [w15]
    1fa4:	0d 00 3a    	bra       NZ, 0x1fc0 <.L79>
    1fa6:	20 64 80    	mov.w     0xc84, w0
    1fa8:	f0 10 90    	mov.w     [w0+46], w1
    1faa:	08 08 90    	mov.w     [w8+16], w0
    1fac:	70 12 90    	mov.w     [w0+46], w4
    1fae:	79 00 20    	mov.w     #0x7, w9
    1fb0:	84 8f 50    	sub.w     w1, w4, [w15]
    1fb2:	06 00 3d    	bra       GE, 0x1fc0 <.L79>
    1fb4:	c2 bf 9f    	mov.w     w2, [w15-8]
    1fb6:	d3 bf 9f    	mov.w     w3, [w15-6]
    1fb8:	10 1e 02    	call      0x1e10 <.eb>
    1fba:	00 00 00 
    1fbc:	df b9 97    	mov.w     [w15-6], w3
    1fbe:	4f b9 97    	mov.w     [w15-8], w2

00001fc0 <.L79>:
   }

   _tn_task_curr_to_wait_action(&(mutex->wait_queue), wait_reason, timeout);
    1fc0:	08 80 e8    	inc2.w    w8, w0
    1fc2:	89 00 78    	mov.w     w9, w1
    1fc4:	6a 26 02    	call      0x266a <.eb>
    1fc6:	00 00 00 

   //-- check if there is deadlock
   _check_deadlock_active(mutex, _tn_curr_run_task);
    1fc8:	21 64 80    	mov.w     0xc84, w1
    1fca:	08 00 78    	mov.w     w8, w0
    1fcc:	98 1c 02    	call      0x1c98 <.eb>
    1fce:	00 00 00 
}
    1fd0:	4f 04 be    	mov.d     [--w15], w8
    1fd2:	00 80 fa    	ulnk      
    1fd4:	00 00 06    	return    
Disassembly of section .text._tn_timer_time_left:

00001fd6 <__tn_timer_time_left>:
/**
 * See comments in the _tn_timer.h file.
 */
TN_TickCnt _tn_timer_time_left(struct TN_Timer *timer)
{
    1fd6:	88 1f 78    	mov.w     w8, [w15++]
    1fd8:	00 04 78    	mov.w     w0, w8
   TN_TickCnt time_left = TN_WAIT_INFINITE;

   //-- interrupts should be disabled here
   _TN_BUG_ON( !TN_IS_INT_DISABLED() );

   if (_tn_timer_is_active(timer)){
    1fda:	08 00 78    	mov.w     w8, w0
    1fdc:	80 2b 02    	call      0x2b80 <.eb>
    1fde:	00 00 00 
    1fe0:	00 01 78    	mov.w     w0, w2
    1fe2:	00 80 eb    	setm.w    w0
    1fe4:	80 80 eb    	setm.w    w1
    1fe6:	02 00 e0    	cp0.w     w2
    1fe8:	13 00 32    	bra       Z, 0x2010 <.L18>
      TN_TickCnt tick_list_index = _TICK_LIST_INDEX(0);
    1fea:	02 79 80    	mov.w     0xf20, w2
    1fec:	13 79 80    	mov.w     0xf22, w3
    1fee:	67 01 61    	and.w     w2, #0x7, w2
    1ff0:	80 01 eb    	clr.w     w3

      if (timer->timeout_cur > tick_list_index){
    1ff2:	58 02 90    	mov.w     [w8+10], w4
    1ff4:	e8 02 90    	mov.w     [w8+12], w5
    1ff6:	82 0f 52    	sub.w     w4, w2, [w15]
    1ff8:	83 8f 5a    	subb.w    w5, w3, [w15]
    1ffa:	03 00 36    	bra       LEU, 0x2002 <.L19>
         time_left = timer->timeout_cur - tick_list_index;
    1ffc:	02 00 52    	sub.w     w4, w2, w0
    1ffe:	83 80 5a    	subb.w    w5, w3, w1
    2000:	07 00 37    	bra       0x2010 <.L18>

00002002 <.L19>:
      } else if (timer->timeout_cur < tick_list_index){
    2002:	82 0f 52    	sub.w     w4, w2, [w15]
    2004:	83 8f 5a    	subb.w    w5, w3, [w15]
    2006:	04 00 31    	bra       C, 0x2010 <.L18>
         time_left = timer->timeout_cur + TN_TICK_LISTS_CNT - tick_list_index;
    2008:	68 00 42    	add.w     w4, #0x8, w0
    200a:	e0 80 4a    	addc.w    w5, #0x0, w1
    200c:	02 00 50    	sub.w     w0, w2, w0
    200e:	83 80 58    	subb.w    w1, w3, w1

00002010 <.L18>:
      } else {
#if TN_DEBUG
         //-- timer->timeout_cur should never be equal to tick_list_index here
         //   (if it is, timer is inactive, so, we don't get here)
         _TN_FATAL_ERROR();
#endif
      }
   }

   return time_left;
}
    2010:	4f 04 78    	mov.w     [--w15], w8
    2012:	00 00 06    	return    
Disassembly of section .text._task_job_iperform:

00002014 <__task_job_iperform>:
static _TN_INLINE enum TN_RCode _task_job_iperform(
      struct TN_Task *task,
      enum TN_RCode (p_worker)(struct TN_Task *task)
      )
{
    2014:	88 9f be    	mov.d     w8, [w15++]
    2016:	8a 9f be    	mov.d     w10, [w15++]
    2018:	00 04 78    	mov.w     w0, w8
    201a:	81 05 78    	mov.w     w1, w11
   enum TN_RCode rc = _check_param_generic(task);
    201c:	08 00 78    	mov.w     w8, w0
    201e:	96 29 02    	call      0x2996 <.eb>
    2020:	00 00 00 
    2022:	80 04 78    	mov.w     w0, w9

   if (rc != TN_RC_OK){
    2024:	09 00 e0    	cp0.w     w9
    2026:	10 00 3a    	bra       NZ, 0x2048 <.L30>
      //-- just return rc as it is
   } else if (!tn_is_isr_context()){
    2028:	d0 2a 02    	call      0x2ad0 <.eb>
    202a:	00 00 00 
      rc = TN_RC_WCONTEXT;
    202c:	d9 ff 2f    	mov.w     #0xfffd, w9
    202e:	00 00 e0    	cp0.w     w0
    2030:	0b 00 32    	bra       Z, 0x2048 <.L30>
   } else {
      TN_INTSAVE_DATA_INT;

      TN_INT_IDIS_SAVE();
    2032:	8a 16 02    	call      0x168a <_tn_arch_sr_save_int_dis>
    2034:	00 00 00 
    2036:	00 05 78    	mov.w     w0, w10

      //-- call actual worker function (_task_wakeup, _tn_task_activate, etc)
      rc = p_worker(task);
    2038:	08 00 78    	mov.w     w8, w0
    203a:	0b 00 01    	call      w11
    203c:	80 04 78    	mov.w     w0, w9

      TN_INT_IRESTORE();
    203e:	0a 00 78    	mov.w     w10, w0
    2040:	98 16 02    	call      0x1698 <_tn_arch_sr_restore>
    2042:	00 00 00 
      _TN_CONTEXT_SWITCH_IPEND_IF_NEEDED();
    2044:	90 2b 02    	call      0x2b90 <.eb>
    2046:	00 00 00 

00002048 <.L30>:

   }
   return rc;
}
    2048:	09 00 78    	mov.w     w9, w0
    204a:	4f 05 be    	mov.d     [--w15], w10
    204c:	4f 04 be    	mov.d     [--w15], w8
    204e:	00 00 06    	return    
Disassembly of section .text._task_job_perform:

00002050 <__task_job_perform>:
static _TN_INLINE enum TN_RCode _task_job_perform(
      struct TN_Task *task,
      enum TN_RCode (p_worker)(struct TN_Task *task)
      )
{
    2050:	88 9f be    	mov.d     w8, [w15++]
    2052:	8a 9f be    	mov.d     w10, [w15++]
    2054:	00 04 78    	mov.w     w0, w8
    2056:	81 05 78    	mov.w     w1, w11
   enum TN_RCode rc = _check_param_generic(task);
    2058:	08 00 78    	mov.w     w8, w0
    205a:	96 29 02    	call      0x2996 <.eb>
    205c:	00 00 00 
    205e:	80 04 78    	mov.w     w0, w9

   if (rc != TN_RC_OK){
    2060:	09 00 e0    	cp0.w     w9
    2062:	10 00 3a    	bra       NZ, 0x2084 <.L33>
      //-- just return rc as it is
   } else if (!tn_is_task_context()){
    2064:	c0 2a 02    	call      0x2ac0 <.eb>
    2066:	00 00 00 
      rc = TN_RC_WCONTEXT;
    2068:	d9 ff 2f    	mov.w     #0xfffd, w9
    206a:	00 00 e0    	cp0.w     w0
    206c:	0b 00 32    	bra       Z, 0x2084 <.L33>
   } else {
      //-- proceed to real job
      TN_INTSAVE_DATA;

      TN_INT_DIS_SAVE();
    206e:	8a 16 02    	call      0x168a <_tn_arch_sr_save_int_dis>
    2070:	00 00 00 
    2072:	00 05 78    	mov.w     w0, w10

      rc = p_worker(task);
    2074:	08 00 78    	mov.w     w8, w0
    2076:	0b 00 01    	call      w11
    2078:	80 04 78    	mov.w     w0, w9

      TN_INT_RESTORE();
    207a:	0a 00 78    	mov.w     w10, w0
    207c:	98 16 02    	call      0x1698 <_tn_arch_sr_restore>
    207e:	00 00 00 
      _tn_context_switch_pend_if_needed();
    2080:	90 2b 02    	call      0x2b90 <.eb>
    2082:	00 00 00 

00002084 <.L33>:
   }
   return rc;
}
    2084:	09 00 78    	mov.w     w9, w0
    2086:	4f 05 be    	mov.d     [--w15], w10
    2088:	4f 04 be    	mov.d     [--w15], w8
    208a:	00 00 06    	return    
Disassembly of section .text._sem_job_iperform:

0000208c <__sem_job_iperform>:
static _TN_INLINE enum TN_RCode _sem_job_iperform(
      struct TN_Sem *sem,
      enum TN_RCode (p_worker)(struct TN_Sem *sem)
      )
{
    208c:	88 9f be    	mov.d     w8, [w15++]
    208e:	8a 9f be    	mov.d     w10, [w15++]
    2090:	00 04 78    	mov.w     w0, w8
    2092:	81 05 78    	mov.w     w1, w11
   enum TN_RCode rc = _check_param_generic(sem);
    2094:	08 00 78    	mov.w     w8, w0
    2096:	de 29 02    	call      0x29de <.eb>
    2098:	00 00 00 
    209a:	80 04 78    	mov.w     w0, w9

   //-- perform additional params checking (if enabled by TN_CHECK_PARAM)
   if (rc != TN_RC_OK){
    209c:	09 00 e0    	cp0.w     w9
    209e:	10 00 3a    	bra       NZ, 0x20c0 <.L19>
      //-- just return rc as it is
   } else if (!tn_is_isr_context()){
    20a0:	20 2b 02    	call      0x2b20 <.eb>
    20a2:	00 00 00 
      rc = TN_RC_WCONTEXT;
    20a4:	d9 ff 2f    	mov.w     #0xfffd, w9
    20a6:	00 00 e0    	cp0.w     w0
    20a8:	0b 00 32    	bra       Z, 0x20c0 <.L19>
   } else {
      TN_INTSAVE_DATA_INT;

      TN_INT_IDIS_SAVE();     //-- disable interrupts
    20aa:	8a 16 02    	call      0x168a <_tn_arch_sr_save_int_dis>
    20ac:	00 00 00 
    20ae:	00 05 78    	mov.w     w0, w10
      rc = p_worker(sem);     //-- call actual worker function
    20b0:	08 00 78    	mov.w     w8, w0
    20b2:	0b 00 01    	call      w11
    20b4:	80 04 78    	mov.w     w0, w9
      TN_INT_IRESTORE();      //-- restore previous interrupts state
    20b6:	0a 00 78    	mov.w     w10, w0
    20b8:	98 16 02    	call      0x1698 <_tn_arch_sr_restore>
    20ba:	00 00 00 
      _TN_CONTEXT_SWITCH_IPEND_IF_NEEDED();
    20bc:	c8 2b 02    	call      0x2bc8 <.eb>
    20be:	00 00 00 

000020c0 <.L19>:
   }
   return rc;
}
    20c0:	09 00 78    	mov.w     w9, w0
    20c2:	4f 05 be    	mov.d     [--w15], w10
    20c4:	4f 04 be    	mov.d     [--w15], w8
    20c6:	00 00 06    	return    
Disassembly of section .text._tn_task_set_waiting:

000020c8 <__tn_task_set_waiting>:
      struct TN_ListItem *wait_que,
      enum TN_WaitReason wait_reason,
      TN_TickCnt timeout
      )
{
    20c8:	04 00 fa    	lnk       #0x4
    20ca:	88 9f be    	mov.d     w8, [w15++]
    20cc:	00 04 be    	mov.d     w0, w8
    20ce:	02 00 78    	mov.w     w2, w0
    20d0:	04 01 be    	mov.d     w4, w2
#if TN_DEBUG
   //-- only SUSPEND bit is allowed here
   if (task->task_state & ~(TN_TASK_STATE_SUSPEND)){
      _TN_FATAL_ERROR("");
   } else if (timeout == 0){
      _TN_FATAL_ERROR("");
   } else if (_tn_timer_is_active(&task->timer)){
      _TN_FATAL_ERROR("");
   }

#endif

   task->task_state       |= TN_TASK_STATE_WAIT;
    20d2:	88 18 90    	mov.w     [w8+48], w1
    20d4:	01 10 a0    	bset.w    w1, #0x1
    20d6:	01 1c 98    	mov.w     w1, [w8+48]
   task->task_wait_reason = wait_reason;
    20d8:	10 1c 98    	mov.w     w0, [w8+50]

   task->waited           = TN_TRUE;
    20da:	08 20 90    	mov.w     [w8+64], w0
    20dc:	00 10 a0    	bset.w    w0, #0x1
    20de:	00 24 98    	mov.w     w0, [w8+64]

   //--- Add to the wait queue  - FIFO

   if (wait_que != TN_NULL){
    20e0:	09 00 e0    	cp0.w     w9
    20e2:	09 00 32    	bra       Z, 0x20f6 <.L55>
      _tn_list_add_tail(wait_que, &(task->task_queue));
    20e4:	e4 00 44    	add.w     w8, #0x4, w1
    20e6:	09 00 78    	mov.w     w9, w0
    20e8:	c4 bf 9f    	mov.w     w4, [w15-8]
    20ea:	d3 bf 9f    	mov.w     w3, [w15-6]
    20ec:	32 2c 02    	call      0x2c32 <.eb>
    20ee:	00 00 00 
      task->pwait_queue = wait_que;
    20f0:	39 0c 98    	mov.w     w9, [w8+22]
    20f2:	df b9 97    	mov.w     [w15-6], w3
    20f4:	4f b9 97    	mov.w     [w15-8], w2

000020f6 <.L55>:
   } else {
      //-- NOTE: we don't need to reset task_queue because
      //   it is already reset in _tn_task_clear_runnable().
   }

   //-- Add to the timers queue, if timeout is neither 0 nor `TN_WAIT_INFINITE`.
   _tn_timer_start(&task->timer, timeout);
    20f6:	68 00 44    	add.w     w8, #0x8, w0
    20f8:	70 1a 02    	call      0x1a70 <.eb>
    20fa:	00 00 00 
}
    20fc:	4f 04 be    	mov.d     [--w15], w8
    20fe:	00 80 fa    	ulnk      
    2100:	00 00 06    	return    
Disassembly of section .text.tn_task_sleep:

00002102 <_tn_task_sleep>:
/*
 * See comments in the header file (tn_tasks.h)
 */
enum TN_RCode tn_task_sleep(TN_TickCnt timeout)
{
    2102:	88 1f 78    	mov.w     w8, [w15++]
    2104:	8a 9f be    	mov.d     w10, [w15++]
    2106:	00 05 be    	mov.d     w0, w10
   enum TN_RCode rc;

   if (timeout == 0){
      rc = TN_RC_TIMEOUT;
    2108:	00 80 eb    	setm.w    w0
    210a:	e0 0f 55    	sub.w     w10, #0x0, [w15]
    210c:	e0 8f 5d    	subb.w    w11, #0x0, [w15]
    210e:	13 00 32    	bra       Z, 0x2136 <.L58>
   } else if (!tn_is_task_context()){
    2110:	c0 2a 02    	call      0x2ac0 <.eb>
    2112:	00 00 00 
    2114:	80 00 78    	mov.w     w0, w1
      rc = TN_RC_WCONTEXT;
    2116:	d0 ff 2f    	mov.w     #0xfffd, w0
    2118:	01 00 e0    	cp0.w     w1
    211a:	0d 00 32    	bra       Z, 0x2136 <.L58>
   } else {
      TN_INTSAVE_DATA;

      TN_INT_DIS_SAVE();
    211c:	8a 16 02    	call      0x168a <_tn_arch_sr_save_int_dis>
    211e:	00 00 00 
    2120:	00 04 78    	mov.w     w0, w8

      //-- put task to wait with reason SLEEP and without wait queue.
      _tn_task_curr_to_wait_action(TN_NULL, TN_WAIT_REASON_SLEEP, timeout);
    2122:	0a 00 be    	mov.d     w10, w0
    2124:	2e 29 02    	call      0x292e <.eb>
    2126:	00 00 00 

      TN_INT_RESTORE();
    2128:	08 00 78    	mov.w     w8, w0
    212a:	98 16 02    	call      0x1698 <_tn_arch_sr_restore>
    212c:	00 00 00 
      _tn_context_switch_pend_if_needed();
    212e:	90 2b 02    	call      0x2b90 <.eb>
    2130:	00 00 00 
      rc = _tn_curr_run_task->task_wait_rc;
    2132:	20 64 80    	mov.w     0xc84, w0
    2134:	20 18 90    	mov.w     [w0+52], w0

00002136 <.L58>:

   }

   return rc;
}
    2136:	4f 05 be    	mov.d     [--w15], w10
    2138:	4f 04 78    	mov.w     [--w15], w8
    213a:	00 00 06    	return    
Disassembly of section .text.tn_timer_start:

0000213c <_tn_timer_start>:
/*
 * See comments in the header file (tn_timer.h)
 */
enum TN_RCode tn_timer_start(struct TN_Timer *timer, TN_TickCnt timeout)
{
    213c:	04 00 fa    	lnk       #0x4
    213e:	88 9f be    	mov.d     w8, [w15++]
    2140:	8a 1f 78    	mov.w     w10, [w15++]
    2142:	00 04 78    	mov.w     w0, w8
   int sr_saved;
   enum TN_RCode rc = _check_param_generic(timer);
    2144:	08 00 78    	mov.w     w8, w0
    2146:	b2 bf 9f    	mov.w     w2, [w15-10]
    2148:	c3 bf 9f    	mov.w     w3, [w15-8]
    214a:	0e 2a 02    	call      0x2a0e <__check_param_generic>
    214c:	00 00 00 
    214e:	00 05 78    	mov.w     w0, w10

   if (rc == TN_RC_OK){
    2150:	0a 00 e0    	cp0.w     w10
    2152:	0c 00 3a    	bra       NZ, 0x216c <.L13>
      sr_saved = tn_arch_sr_save_int_dis();
    2154:	8a 16 02    	call      0x168a <_tn_arch_sr_save_int_dis>
    2156:	00 00 00 
    2158:	80 04 78    	mov.w     w0, w9
      rc = _tn_timer_start(timer, timeout);
    215a:	3f b9 97    	mov.w     [w15-10], w2
    215c:	cf b9 97    	mov.w     [w15-8], w3
    215e:	08 00 78    	mov.w     w8, w0
    2160:	70 1a 02    	call      0x1a70 <.eb>
    2162:	00 00 00 
    2164:	00 05 78    	mov.w     w0, w10
      tn_arch_sr_restore(sr_saved);
    2166:	09 00 78    	mov.w     w9, w0
    2168:	98 16 02    	call      0x1698 <_tn_arch_sr_restore>
    216a:	00 00 00 

0000216c <.L13>:
   }

   return rc;
}
    216c:	0a 00 78    	mov.w     w10, w0
    216e:	4f 05 78    	mov.w     [--w15], w10
    2170:	4f 04 be    	mov.d     [--w15], w8
    2172:	00 80 fa    	ulnk      
    2174:	00 00 06    	return    
Disassembly of section .text.tn_timer_set_func:

00002176 <_tn_timer_set_func>:
      struct TN_Timer  *timer,
      TN_TimerFunc     *func,
      void             *p_user_data
      )
{
    2176:	88 9f be    	mov.d     w8, [w15++]
    2178:	8a 9f be    	mov.d     w10, [w15++]
    217a:	8c 1f 78    	mov.w     w12, [w15++]
    217c:	00 04 78    	mov.w     w0, w8
    217e:	01 05 78    	mov.w     w1, w10
    2180:	02 06 78    	mov.w     w2, w12
   int sr_saved;
   enum TN_RCode rc = _check_param_generic(timer);
    2182:	08 00 78    	mov.w     w8, w0
    2184:	0e 2a 02    	call      0x2a0e <__check_param_generic>
    2186:	00 00 00 
    2188:	80 05 78    	mov.w     w0, w11

   if (rc == TN_RC_OK){
    218a:	0b 00 e0    	cp0.w     w11
    218c:	0c 00 3a    	bra       NZ, 0x21a6 <.L26>
      sr_saved = tn_arch_sr_save_int_dis();
    218e:	8a 16 02    	call      0x168a <_tn_arch_sr_save_int_dis>
    2190:	00 00 00 
    2192:	80 04 78    	mov.w     w0, w9
      rc = _tn_timer_set_func(timer, func, p_user_data);
    2194:	0c 01 78    	mov.w     w12, w2
    2196:	8a 00 78    	mov.w     w10, w1
    2198:	08 00 78    	mov.w     w8, w0
    219a:	70 2b 02    	call      0x2b70 <.eb>
    219c:	00 00 00 
    219e:	80 05 78    	mov.w     w0, w11
      tn_arch_sr_restore(sr_saved);
    21a0:	09 00 78    	mov.w     w9, w0
    21a2:	98 16 02    	call      0x1698 <_tn_arch_sr_restore>
    21a4:	00 00 00 

000021a6 <.L26>:
   }

   return rc;
}
    21a6:	0b 00 78    	mov.w     w11, w0
    21a8:	4f 06 78    	mov.w     [--w15], w12
    21aa:	4f 05 be    	mov.d     [--w15], w10
    21ac:	4f 04 be    	mov.d     [--w15], w8
    21ae:	00 00 06    	return    
Disassembly of section .text.tn_task_delete:

000021b0 <_tn_task_delete>:
/*
 * See comments in the header file (tn_tasks.h)
 */
enum TN_RCode tn_task_delete(struct TN_Task *task)
{
    21b0:	88 9f be    	mov.d     w8, [w15++]
    21b2:	8a 1f 78    	mov.w     w10, [w15++]
    21b4:	80 04 78    	mov.w     w0, w9
   enum TN_RCode rc = _check_param_generic(task);
    21b6:	09 00 78    	mov.w     w9, w0
    21b8:	96 29 02    	call      0x2996 <.eb>
    21ba:	00 00 00 
    21bc:	00 04 78    	mov.w     w0, w8

   if (rc != TN_RC_OK){
    21be:	08 00 e0    	cp0.w     w8
    21c0:	0f 00 3a    	bra       NZ, 0x21e0 <.L42>
      //-- just return rc as it is
   } else if (!tn_is_task_context()){
    21c2:	c0 2a 02    	call      0x2ac0 <.eb>
    21c4:	00 00 00 
      rc = TN_RC_WCONTEXT;
    21c6:	d8 ff 2f    	mov.w     #0xfffd, w8
    21c8:	00 00 e0    	cp0.w     w0
    21ca:	0a 00 32    	bra       Z, 0x21e0 <.L42>
   } else {
      TN_INTSAVE_DATA;

      TN_INT_DIS_SAVE();
    21cc:	8a 16 02    	call      0x168a <_tn_arch_sr_save_int_dis>
    21ce:	00 00 00 
    21d0:	00 05 78    	mov.w     w0, w10
      rc = _task_delete(task);
    21d2:	09 00 78    	mov.w     w9, w0
    21d4:	f8 25 02    	call      0x25f8 <.eb>
    21d6:	00 00 00 
    21d8:	00 04 78    	mov.w     w0, w8
      TN_INT_RESTORE();
    21da:	0a 00 78    	mov.w     w10, w0
    21dc:	98 16 02    	call      0x1698 <_tn_arch_sr_restore>
    21de:	00 00 00 

000021e0 <.L42>:

   }
   return rc;
}
    21e0:	08 00 78    	mov.w     w8, w0
    21e2:	4f 05 78    	mov.w     [--w15], w10
    21e4:	4f 04 be    	mov.d     [--w15], w8
    21e6:	00 00 06    	return    
Disassembly of section .text._tn_task_clear_waiting:

000021e8 <__tn_task_clear_waiting>:
/**
 * See comment in the _tn_tasks.h file
 */
void _tn_task_clear_waiting(struct TN_Task *task, enum TN_RCode wait_rc)
{
    21e8:	88 9f be    	mov.d     w8, [w15++]
    21ea:	8a 1f 78    	mov.w     w10, [w15++]
    21ec:	00 04 78    	mov.w     w0, w8
    21ee:	01 05 78    	mov.w     w1, w10
#if TN_DEBUG
   //-- only WAIT and SUSPEND bits are allowed here,
   //   and WAIT bit must be set
   if (
              (task->task_state & ~(TN_TASK_STATE_WAIT | TN_TASK_STATE_SUSPEND))
         || (!(task->task_state &  (TN_TASK_STATE_WAIT)                    ))
      )
   {
      _TN_FATAL_ERROR("");
   }

   if (_tn_list_is_empty(&task->task_queue) != (task->pwait_queue == TN_NULL)){
      _TN_FATAL_ERROR("task_queue and pwait_queue are out of sync");
   }

#endif

   //-- NOTE: we should remove task from wait_queue before calling
   //   _on_task_wait_complete(), because _find_max_blocked_priority()
   //   in tn_mutex.c checks for all tasks in mutex's wait_queue to
   //   get max blocked priority

   //-- NOTE: we don't care here whether task is contained in any wait_queue,
   //   because even if it isn't, _tn_list_remove_entry() on empty list
   //   does just nothing.
   _tn_list_remove_entry(&task->task_queue);
    21f0:	e4 04 44    	add.w     w8, #0x4, w9
    21f2:	09 00 78    	mov.w     w9, w0
    21f4:	3e 2c 02    	call      0x2c3e <.eb>
    21f6:	00 00 00 
   //-- and reset task's queue
   _tn_list_reset(&(task->task_queue));
    21f8:	09 00 78    	mov.w     w9, w0
    21fa:	04 2d 02    	call      0x2d04 <.eb>
    21fc:	00 00 00 

   //-- handle current wait_reason: say, for MUTEX_I, we should
   //   handle priorities of other involved tasks.
   _on_task_wait_complete(task);
    21fe:	08 00 78    	mov.w     w8, w0
    2200:	46 27 02    	call      0x2746 <.eb>
    2202:	00 00 00 

   task->pwait_queue  = TN_NULL;
    2204:	80 04 eb    	clr.w     w9
    2206:	39 0c 98    	mov.w     w9, [w8+22]
   task->task_wait_rc = wait_rc;
    2208:	2a 1c 98    	mov.w     w10, [w8+52]

   //-- if timer is active (i.e. task waits for timeout),
   //   cancel that timer
   _tn_timer_cancel(&task->timer);
    220a:	68 00 44    	add.w     w8, #0x8, w0
    220c:	aa 25 02    	call      0x25aa <.eb>
    220e:	00 00 00 

   //-- remove WAIT state
   task->task_state &= ~TN_TASK_STATE_WAIT;
    2210:	08 18 90    	mov.w     [w8+48], w0
    2212:	00 10 a1    	bclr.w    w0, #0x1
    2214:	00 1c 98    	mov.w     w0, [w8+48]

   //-- Clear wait reason
   task->task_wait_reason = TN_WAIT_REASON_NONE;
    2216:	19 1c 98    	mov.w     w9, [w8+50]
}
    2218:	4f 05 78    	mov.w     [--w15], w10
    221a:	4f 04 be    	mov.d     [--w15], w8
    221c:	00 00 06    	return    
Disassembly of section .text:

0000221e <_hw_init>:
{
//  Настройка тактовой частоты ядра контроллера    
//  Fosc = Fin*M*/(N1*N2) == 80MHz == 40MIPS; Fin == 10MHz
//  N1 = 2 => PLLPRE<4:0> = 0
    CLKDIVbits.PLLPRE = 0;
    221e:	00 fe 2f    	mov.w     #0xffe0, w0
    2220:	44 27 b6    	and.w     0x744
    
//  M = 32 => PLLDIV<8:0> = 0x1E
    PLLFBDbits.PLLDIV = 0x1E;
    2222:	00 e0 2f    	mov.w     #0xfe00, w0
    2224:	46 07 b6    	and.w     0x746, WREG
    2226:	e0 01 b3    	ior.w     #0x1e, w0
    2228:	30 3a 88    	mov.w     w0, 0x746
    
//  N2 = 2 => PLLPOST<1:0> = 0
    CLKDIVbits.PLLPOST = 0;
    222a:	f0 f3 2f    	mov.w     #0xff3f, w0
    222c:	44 27 b6    	and.w     0x744

0000222e <.bb>:
    
   //-- set up timer1
   TN_BFA(TN_BFA_WR, T1CON, TCS, 0);
    222e:	04 21 a9    	bclr.b    0x104, #0x1

00002230 <.bb>:
   TN_BFA(TN_BFA_WR, T1CON, TGATE, 0);
    2230:	04 c1 a9    	bclr.b    0x104, #0x6

00002232 <.bb>:
   TN_BFA(TN_BFA_WR, T1CON, TSIDL, 1);
    2232:	05 a1 a8    	bset.b    0x105, #0x5

00002234 <.bb>:

   //-- set prescaler: 1:64
   TN_BFA(TN_BFA_WR, T1CON, TCKPS, SYS_TMR_PRESCALER_REGVALUE); 
    2234:	20 08 80    	mov.w     0x104, w0
    2236:	00 50 a2    	btg.w     w0, #0x5
    2238:	00 03 b2    	and.w     #0x30, w0
    223a:	04 a1 b6    	xor.w     0x104

0000223c <.eb>:
   //-- set period
   PR1 = (SYS_TMR_PERIOD - 1);
    223c:	70 13 20    	mov.w     #0x137, w0
    223e:	10 08 88    	mov.w     w0, 0x102

00002240 <.bb>:

   //-- set timer1 interrupt
   TN_BFA(TN_BFA_WR, IPC0, T1IP, 2);   //-- set timer1 interrupt priority: 2
    2240:	20 05 80    	mov.w     0xa4, w0
    2242:	00 d0 a2    	btg.w     w0, #0xd
    2244:	01 00 27    	mov.w     #0x7000, w1
    2246:	01 00 60    	and.w     w0, w1, w0
    2248:	a4 a0 b6    	xor.w     0xa4

0000224a <.bb>:
   TN_BFA(TN_BFA_WR, IFS0, T1IF, 0);   //-- clear interrupt flag
    224a:	84 60 a9    	bclr.b    0x84, #0x3

0000224c <.bb>:
   TN_BFA(TN_BFA_WR, IEC0, T1IE, 1);   //-- enable interrupt
    224c:	94 60 a8    	bset.b    0x94, #0x3

0000224e <.bb>:

   //-- eventually, turn the timer on
   TN_BFA(TN_BFA_WR, T1CON, TON, 1);   
    224e:	05 e1 a8    	bset.b    0x105, #0x7

00002250 <.eb>:
}
    2250:	00 00 06    	return    
Disassembly of section .text.tn_task_state_get:

00002252 <_tn_task_state_get>:
enum TN_RCode tn_task_state_get(
      struct TN_Task *task,
      enum TN_TaskState *p_state
      )
{
    2252:	88 9f be    	mov.d     w8, [w15++]
    2254:	8a 1f 78    	mov.w     w10, [w15++]
    2256:	00 04 78    	mov.w     w0, w8
    2258:	01 05 78    	mov.w     w1, w10
   enum TN_RCode rc = _check_param_generic(task);
    225a:	08 00 78    	mov.w     w8, w0
    225c:	96 29 02    	call      0x2996 <.eb>
    225e:	00 00 00 
    2260:	80 04 78    	mov.w     w0, w9
   if (rc != TN_RC_OK){
    2262:	09 00 e0    	cp0.w     w9
    2264:	0c 00 3a    	bra       NZ, 0x227e <.L45>
      //-- just return rc as it is
   } else if (!tn_is_task_context()){
    2266:	c0 2a 02    	call      0x2ac0 <.eb>
    2268:	00 00 00 
    226a:	00 00 e0    	cp0.w     w0
    226c:	07 00 32    	bra       Z, 0x227c <.L46>
      rc = TN_RC_WCONTEXT;
   } else {
      TN_INTSAVE_DATA;

      TN_INT_DIS_SAVE();
    226e:	8a 16 02    	call      0x168a <_tn_arch_sr_save_int_dis>
    2270:	00 00 00 
      *p_state = task->task_state;
    2272:	08 1c 90    	mov.w     [w8+48], w8
    2274:	08 0d 78    	mov.w     w8, [w10]
      TN_INT_RESTORE();
    2276:	98 16 02    	call      0x1698 <_tn_arch_sr_restore>
    2278:	00 00 00 
    227a:	01 00 37    	bra       0x227e <.L45>

0000227c <.L46>:
    227c:	d9 ff 2f    	mov.w     #0xfffd, w9

0000227e <.L45>:
   }
   return rc;
}
    227e:	09 00 78    	mov.w     w9, w0
    2280:	4f 05 78    	mov.w     [--w15], w10
    2282:	4f 04 be    	mov.d     [--w15], w8
    2284:	00 00 06    	return    
Disassembly of section .text._tn_change_running_task_priority:

00002286 <__tn_change_running_task_priority>:
/**
 * See comment in the _tn_tasks.h file
 */
void _tn_change_running_task_priority(struct TN_Task *task, int new_priority)
{
    2286:	88 9f be    	mov.d     w8, [w15++]
    2288:	8a 1f 78    	mov.w     w10, [w15++]
    228a:	00 04 78    	mov.w     w0, w8
    228c:	01 05 78    	mov.w     w1, w10
   if (!_tn_task_is_runnable(task)){
    228e:	08 18 90    	mov.w     [w8+48], w0
    2290:	20 2d 02    	call      0x2d20 <__tn_task_is_runnable.clone.0>
    2292:	00 00 00 
    2294:	00 00 e0    	cp0.w     w0
    2296:	02 00 3a    	bra       NZ, 0x229c <.L128>
      _TN_FATAL_ERROR("_tn_change_running_task_priority called for non-runnable task");
    2298:	00 40 da    	break     
    229a:	00 00 00    	nop       

0000229c <.L128>:
   }

   //-- remove curr task from any (wait/ready) queue
   _remove_entry_from_ready_queue(&(task->task_queue), task->priority);
    229c:	e4 04 44    	add.w     w8, #0x4, w9
    229e:	f8 10 90    	mov.w     [w8+46], w1
    22a0:	09 00 78    	mov.w     w9, w0
    22a2:	d2 25 02    	call      0x25d2 <.eb>
    22a4:	00 00 00 

   task->priority = new_priority;
    22a6:	7a 14 98    	mov.w     w10, [w8+46]

   //-- Add task to the end of ready queue for current priority
   _add_entry_to_ready_queue(&(task->task_queue), new_priority);
    22a8:	8a 00 78    	mov.w     w10, w1
    22aa:	09 00 78    	mov.w     w9, w0
    22ac:	ac 27 02    	call      0x27ac <.eb>
    22ae:	00 00 00 

   _find_next_task_to_run();
    22b0:	14 29 02    	call      0x2914 <.eb>
    22b2:	00 00 00 
}
    22b4:	4f 05 78    	mov.w     [--w15], w10
    22b6:	4f 04 be    	mov.d     [--w15], w8
    22b8:	00 00 06    	return    
Disassembly of section .text._check_param_create:

000022ba <__check_param_create>:
      const struct TN_Mutex        *mutex,
      enum TN_MutexProtocol   protocol,
      int                     ceil_priority
      )
{
    22ba:	88 9f be    	mov.d     w8, [w15++]
    22bc:	8a 1f 78    	mov.w     w10, [w15++]
    22be:	01 04 78    	mov.w     w1, w8
    22c0:	02 05 78    	mov.w     w2, w10
   enum TN_RCode rc = TN_RC_OK;

   if (mutex == TN_NULL){
      rc = TN_RC_WPARAM;
    22c2:	b9 ff 2f    	mov.w     #0xfffb, w9
    22c4:	00 00 e0    	cp0.w     w0
    22c6:	0f 00 32    	bra       Z, 0x22e6 <.L47>
   } else if (_tn_mutex_is_valid(mutex)){
    22c8:	10 00 78    	mov.w     [w0], w0
    22ca:	f2 2b 02    	call      0x2bf2 <.eb>
    22cc:	00 00 00 
    22ce:	00 00 e0    	cp0.w     w0
    22d0:	0a 00 3a    	bra       NZ, 0x22e6 <.L47>
      rc = TN_RC_WPARAM;
   } else if (    protocol != TN_MUTEX_PROT_CEILING 
               && protocol != TN_MUTEX_PROT_INHERIT)
    22d2:	08 00 e9    	dec.w     w8, w0
    22d4:	e1 0f 50    	sub.w     w0, #0x1, [w15]
    22d6:	07 00 3e    	bra       GTU, 0x22e6 <.L47>
    22d8:	80 04 eb    	clr.w     w9
   {
      rc = TN_RC_WPARAM;
   } else if (1
    22da:	e1 0f 54    	sub.w     w8, #0x1, [w15]
    22dc:	04 00 3a    	bra       NZ, 0x22e6 <.L47>
         && protocol == TN_MUTEX_PROT_CEILING 
         && (0
            || ceil_priority <  0
            || ceil_priority >= (TN_PRIORITIES_CNT - 1)
            )
         )
   {
      rc = TN_RC_WPARAM;
    22de:	b9 ff 2f    	mov.w     #0xfffb, w9
    22e0:	ee 0f 55    	sub.w     w10, #0xe, [w15]
    22e2:	01 00 3e    	bra       GTU, 0x22e6 <.L47>
    22e4:	80 04 eb    	clr.w     w9

000022e6 <.L47>:
   }

   return rc;
}
    22e6:	09 00 78    	mov.w     w9, w0
    22e8:	4f 05 78    	mov.w     [--w15], w10
    22ea:	4f 04 be    	mov.d     [--w15], w8
    22ec:	00 00 06    	return    
Disassembly of section .text._cry_deadlock_inactive:

000022ee <__cry_deadlock_inactive>:
 * cry that deadlock becomes inactive,
 * and unlink deadlock lists (for mutexes and tasks involved)
 */
static void _cry_deadlock_inactive(struct TN_Mutex *mutex, struct TN_Task *task)
{
    22ee:	88 9f be    	mov.d     w8, [w15++]
    22f0:	00 04 be    	mov.d     w0, w8
   if (!_tn_list_is_empty(&mutex->deadlock_list)){
    22f2:	6a 00 44    	add.w     w8, #0xa, w0
    22f4:	3c 2a 02    	call      0x2a3c <.eb>
    22f6:	00 00 00 
    22f8:	00 00 e0    	cp0.w     w0
    22fa:	10 00 3a    	bra       NZ, 0x231c <.L20>

      if (_tn_list_is_empty(&task->deadlock_list)){
    22fc:	00 02 20    	mov.w     #0x20, w0
    22fe:	09 00 40    	add.w     w0, w9, w0
    2300:	3c 2a 02    	call      0x2a3c <.eb>
    2302:	00 00 00 
    2304:	00 00 e0    	cp0.w     w0
    2306:	02 00 32    	bra       Z, 0x230c <.L22>
         //-- should never be here: deadlock lists for tasks and mutexes
         //   should either be both non-empty or both empty
         _TN_FATAL_ERROR();
    2308:	00 40 da    	break     
    230a:	00 00 00    	nop       

0000230c <.L22>:
      }

      //-- cry that deadlock becomes inactive
      //   (user will be notified if he has set callback with
      //   tn_callback_deadlock_set()) NOTE: we should call this function
      //   _before_ calling _unlink_deadlock_lists(), so that user may examine
      //   mutexes and tasks involved in deadlock.
      _tn_cry_deadlock(TN_FALSE, mutex, task);
    230c:	09 01 78    	mov.w     w9, w2
    230e:	88 00 78    	mov.w     w8, w1
    2310:	00 00 eb    	clr.w     w0
    2312:	1c 1f 02    	call      0x1f1c <.eb>
    2314:	00 00 00 

      //-- unlink deadlock lists (for mutexes and tasks involved)
      _unlink_deadlock_lists(mutex, task);
    2316:	08 00 be    	mov.d     w8, w0
    2318:	3a 1d 02    	call      0x1d3a <.eb>
    231a:	00 00 00 

0000231c <.L20>:
   }

}
    231c:	4f 04 be    	mov.d     [--w15], w8
    231e:	00 00 06    	return    
Disassembly of section .text.tn_task_exit:

00002320 <_tn_task_exit>:
/*
 * See comments in the header file (tn_tasks.h)
 */
void tn_task_exit(enum TN_TaskExitOpt opts)
{
    2320:	88 9f be    	mov.d     w8, [w15++]
    2322:	80 04 78    	mov.w     w0, w9
   struct TN_Task *task;
	 
   if (!tn_is_task_context()){
    2324:	c0 2a 02    	call      0x2ac0 <.eb>
    2326:	00 00 00 
    2328:	00 00 e0    	cp0.w     w0
    232a:	10 00 32    	bra       Z, 0x234c <.L97>
      //-- do nothing, just return
   } else {

      //-- here, we unconditionally disable interrupts:
      //   this function never returns, and interrupt status is restored
      //   from different task's stack inside 
      //   `_tn_arch_context_switch_now_nosave()` call.
      tn_arch_int_dis();
    232c:	a6 16 02    	call      0x16a6 <_tn_arch_int_dis>
    232e:	00 00 00 

      task = _tn_curr_run_task;
    2330:	28 64 80    	mov.w     0xc84, w8

      //-- clear runnable state of currently running task,
      //   and terminate it

      _tn_task_clear_runnable(task);
    2332:	08 00 78    	mov.w     w8, w0
    2334:	ca 1d 02    	call      0x1dca <.eb>
    2336:	00 00 00 
      _task_terminate(task);
    2338:	08 00 78    	mov.w     w8, w0
    233a:	52 2a 02    	call      0x2a52 <.eb>
    233c:	00 00 00 

      if ((opts & TN_TASK_EXIT_OPT_DELETE)){
    233e:	09 08 a3    	btst.z    w9, #0x0
    2340:	03 00 32    	bra       Z, 0x2348 <.L99>
         //-- after exiting from task, we should delete it as well
         //   (because appropriate flag was set)
         _task_delete(task);
    2342:	08 00 78    	mov.w     w8, w0
    2344:	f8 25 02    	call      0x25f8 <.eb>
    2346:	00 00 00 

00002348 <.L99>:
      }

      //-- interrupts will be enabled inside _tn_arch_context_switch_now_nosave()
      _tn_arch_context_switch_now_nosave();  
    2348:	1c 16 02    	call      0x161c <__tn_arch_context_switch_now_nosave>
    234a:	00 00 00 

0000234c <.L97>:
   }

   return;
}
    234c:	4f 04 be    	mov.d     [--w15], w8
    234e:	00 00 06    	return    
Disassembly of section .text.tn_sem_create:

00002350 <_tn_sem_create>:
      struct TN_Sem *sem,
      int start_count,
      int max_count
      )
{
    2350:	88 9f be    	mov.d     w8, [w15++]
    2352:	8a 9f be    	mov.d     w10, [w15++]
    2354:	00 04 78    	mov.w     w0, w8
    2356:	01 05 78    	mov.w     w1, w10
    2358:	82 04 78    	mov.w     w2, w9
   //-- perform additional params checking (if enabled by TN_CHECK_PARAM)
   enum TN_RCode rc = _check_param_create(sem, start_count, max_count);
    235a:	09 01 78    	mov.w     w9, w2
    235c:	8a 00 78    	mov.w     w10, w1
    235e:	08 00 78    	mov.w     w8, w0
    2360:	9c 24 02    	call      0x249c <.eb>
    2362:	00 00 00 
    2364:	80 05 78    	mov.w     w0, w11

   if (rc != TN_RC_OK){
    2366:	0b 00 e0    	cp0.w     w11
    2368:	07 00 3a    	bra       NZ, 0x2378 <.L36>
      //-- just return rc as it is
   } else {

      _tn_list_reset(&(sem->wait_queue));
    236a:	08 80 e8    	inc2.w    w8, w0
    236c:	04 2d 02    	call      0x2d04 <.eb>
    236e:	00 00 00 

      sem->count     = start_count;
    2370:	3a 04 98    	mov.w     w10, [w8+6]
      sem->max_count = max_count;
    2372:	49 04 98    	mov.w     w9, [w8+8]
      sem->id_sem    = TN_ID_SEMAPHORE;
    2374:	b0 3e 27    	mov.w     #0x73eb, w0
    2376:	00 0c 78    	mov.w     w0, [w8]

00002378 <.L36>:

   }
   return rc;
}
    2378:	0b 00 78    	mov.w     w11, w0
    237a:	4f 05 be    	mov.d     [--w15], w10
    237c:	4f 04 be    	mov.d     [--w15], w8
    237e:	00 00 06    	return    
Disassembly of section .text._mutex_do_lock:

00002380 <__mutex_do_lock>:

}

static _TN_INLINE void _mutex_do_lock(struct TN_Mutex *mutex, struct TN_Task *task)
{
    2380:	88 9f be    	mov.d     w8, [w15++]
    2382:	80 04 78    	mov.w     w0, w9
    2384:	01 04 78    	mov.w     w1, w8
   mutex->holder = task;
    2386:	88 0c 98    	mov.w     w8, [w9+16]
   __mutex_lock_cnt_change(mutex, 1);
    2388:	29 08 90    	mov.w     [w9+20], w0
    238a:	00 00 e8    	inc.w     w0, w0
    238c:	a0 0c 98    	mov.w     w0, [w9+20]

   //-- Add mutex to task's locked mutexes queue
   _tn_list_add_tail(&(task->mutex_queue), &(mutex->mutex_queue));
    238e:	e6 80 44    	add.w     w9, #0x6, w1
    2390:	7c 00 44    	add.w     w8, #0x1c, w0
    2392:	32 2c 02    	call      0x2c32 <.eb>
    2394:	00 00 00 

   //-- Determine new priority for the task
   {
      int new_priority = _find_max_priority_by_mutex(mutex, task->priority);
    2396:	f8 10 90    	mov.w     [w8+46], w1
    2398:	09 00 78    	mov.w     w9, w0
    239a:	da 26 02    	call      0x26da <.eb>
    239c:	00 00 00 
      if (task->priority != new_priority){
    239e:	f8 10 90    	mov.w     [w8+46], w1
    23a0:	80 8f 50    	sub.w     w1, w0, [w15]
    23a2:	04 00 32    	bra       Z, 0x23ac <.L28>
         _tn_change_task_priority(task, new_priority);
    23a4:	80 00 78    	mov.w     w0, w1
    23a6:	08 00 78    	mov.w     w8, w0
    23a8:	c2 28 02    	call      0x28c2 <.eb>
    23aa:	00 00 00 

000023ac <.L28>:
      }
   }

}
    23ac:	4f 04 be    	mov.d     [--w15], w8
    23ae:	00 00 06    	return    
Disassembly of section .text.tn_timer_delete:

000023b0 <_tn_timer_delete>:
/*
 * See comments in the header file (tn_timer.h)
 */
enum TN_RCode tn_timer_delete(struct TN_Timer *timer)
{
    23b0:	88 9f be    	mov.d     w8, [w15++]
    23b2:	8a 1f 78    	mov.w     w10, [w15++]
    23b4:	80 04 78    	mov.w     w0, w9
   int sr_saved;
   enum TN_RCode rc = _check_param_generic(timer);
    23b6:	09 00 78    	mov.w     w9, w0
    23b8:	0e 2a 02    	call      0x2a0e <__check_param_generic>
    23ba:	00 00 00 
    23bc:	00 04 78    	mov.w     w0, w8

   if (rc == TN_RC_OK){
    23be:	08 00 e0    	cp0.w     w8
    23c0:	0b 00 3a    	bra       NZ, 0x23d8 <.L11>
      sr_saved = tn_arch_sr_save_int_dis();
    23c2:	8a 16 02    	call      0x168a <_tn_arch_sr_save_int_dis>
    23c4:	00 00 00 
    23c6:	00 05 78    	mov.w     w0, w10
      //-- if timer is active, cancel it first
      rc = _tn_timer_cancel(timer);
    23c8:	09 00 78    	mov.w     w9, w0
    23ca:	aa 25 02    	call      0x25aa <.eb>
    23cc:	00 00 00 
    23ce:	00 04 78    	mov.w     w0, w8

      //-- now, delete timer
      timer->id_timer = TN_ID_NONE;
    23d0:	80 0c eb    	clr.w     [w9]
      tn_arch_sr_restore(sr_saved);
    23d2:	0a 00 78    	mov.w     w10, w0
    23d4:	98 16 02    	call      0x1698 <_tn_arch_sr_restore>
    23d6:	00 00 00 

000023d8 <.L11>:
   }

   return rc;
}
    23d8:	08 00 78    	mov.w     w8, w0
    23da:	4f 05 78    	mov.w     [--w15], w10
    23dc:	4f 04 be    	mov.d     [--w15], w8
    23de:	00 00 06    	return    
Disassembly of section .text.tn_timer_time_left:

000023e0 <_tn_timer_time_left>:
enum TN_RCode tn_timer_time_left(
      struct TN_Timer *timer,
      TN_TickCnt *p_time_left
      )
{
    23e0:	88 9f be    	mov.d     w8, [w15++]
    23e2:	8a 9f be    	mov.d     w10, [w15++]
    23e4:	80 04 78    	mov.w     w0, w9
    23e6:	81 05 78    	mov.w     w1, w11
   int sr_saved;
   enum TN_RCode rc = _check_param_generic(timer);
    23e8:	09 00 78    	mov.w     w9, w0
    23ea:	0e 2a 02    	call      0x2a0e <__check_param_generic>
    23ec:	00 00 00 
    23ee:	00 04 78    	mov.w     w0, w8

   if (rc == TN_RC_OK){
    23f0:	08 00 e0    	cp0.w     w8
    23f2:	0a 00 3a    	bra       NZ, 0x2408 <.L17>
      sr_saved = tn_arch_sr_save_int_dis();
    23f4:	8a 16 02    	call      0x168a <_tn_arch_sr_save_int_dis>
    23f6:	00 00 00 
    23f8:	00 05 78    	mov.w     w0, w10
      *p_time_left = _tn_timer_time_left(timer);
    23fa:	09 00 78    	mov.w     w9, w0
    23fc:	d6 1f 02    	call      0x1fd6 <.eb>
    23fe:	00 00 00 
    2400:	80 8d be    	mov.d     w0, [w11]
      tn_arch_sr_restore(sr_saved);
    2402:	0a 00 78    	mov.w     w10, w0
    2404:	98 16 02    	call      0x1698 <_tn_arch_sr_restore>
    2406:	00 00 00 

00002408 <.L17>:
   }

   return rc;
}
    2408:	08 00 78    	mov.w     w8, w0
    240a:	4f 05 be    	mov.d     [--w15], w10
    240c:	4f 04 be    	mov.d     [--w15], w8
    240e:	00 00 06    	return    
Disassembly of section .text.tn_timer_is_active:

00002410 <_tn_timer_is_active>:
/*
 * See comments in the header file (tn_timer.h)
 */
enum TN_RCode tn_timer_is_active(struct TN_Timer *timer, TN_BOOL *p_is_active)
{
    2410:	88 9f be    	mov.d     w8, [w15++]
    2412:	8a 9f be    	mov.d     w10, [w15++]
    2414:	00 04 78    	mov.w     w0, w8
    2416:	81 05 78    	mov.w     w1, w11
   int sr_saved;
   enum TN_RCode rc = _check_param_generic(timer);
    2418:	08 00 78    	mov.w     w8, w0
    241a:	0e 2a 02    	call      0x2a0e <__check_param_generic>
    241c:	00 00 00 
    241e:	80 04 78    	mov.w     w0, w9

   if (rc == TN_RC_OK){
    2420:	09 00 e0    	cp0.w     w9
    2422:	0a 00 3a    	bra       NZ, 0x2438 <.L29>
      sr_saved = tn_arch_sr_save_int_dis();
    2424:	8a 16 02    	call      0x168a <_tn_arch_sr_save_int_dis>
    2426:	00 00 00 
    2428:	00 05 78    	mov.w     w0, w10
      *p_is_active = _tn_timer_is_active(timer);
    242a:	08 00 78    	mov.w     w8, w0
    242c:	80 2b 02    	call      0x2b80 <.eb>
    242e:	00 00 00 
    2430:	80 0d 78    	mov.w     w0, [w11]
      tn_arch_sr_restore(sr_saved);
    2432:	0a 00 78    	mov.w     w10, w0
    2434:	98 16 02    	call      0x1698 <_tn_arch_sr_restore>
    2436:	00 00 00 

00002438 <.L29>:
   }

   return rc;
}
    2438:	09 00 78    	mov.w     w9, w0
    243a:	4f 05 be    	mov.d     [--w15], w10
    243c:	4f 04 be    	mov.d     [--w15], w8
    243e:	00 00 06    	return    
Disassembly of section .text:

00002440 <_LoadDac>:

int DacData[16];

void LoadDac(BYTE Channel, UINT Val)
{
    2440:	02 00 fa    	lnk       #0x2
    2442:	88 1f 78    	mov.w     w8, [w15++]
    2444:	00 44 78    	mov.b     w0, w8
    2446:	e1 bf 9f    	mov.w     w1, [w15-4]
	BYTE Byte;
    SpiWaitTransmitEnd();
    2448:	62 02 07    	rcall     0x290e <_SpiWaitTransmitEnd> <.L15> <.bb> <.bf> <.eb> <.ef>
	//DAC_CS=0;
	SpiSend(Channel);
    244a:	08 40 78    	mov.b     w8, w0
    244c:	57 02 07    	rcall     0x28fc <_SpiSend> <.L5> <.bb> <.bf> <.eb> <.ef>
	Byte=*((BYTE*)&Val+1)|0xC0;
    244e:	00 cc b3    	mov.b     #0xc0, w0
    2450:	df f8 97    	mov.b     [w15-3], w1
    2452:	00 c0 70    	ior.b     w1, w0, w0
	SpiSend(Byte);
    2454:	53 02 07    	rcall     0x28fc <_SpiSend> <.L5> <.bb> <.bf> <.eb> <.ef>
	SpiSend(*((BYTE*)&Val));
    2456:	4f f8 97    	mov.b     [w15-4], w0
    2458:	51 02 07    	rcall     0x28fc <_SpiSend> <.L5> <.bb> <.bf> <.eb> <.ef>
	SpiWaitTransmitEnd();
    245a:	59 02 07    	rcall     0x290e <_SpiWaitTransmitEnd> <.L15> <.bb> <.bf> <.eb> <.ef>
	//DAC_CS=1;
}
    245c:	4f 04 78    	mov.w     [--w15], w8
    245e:	00 80 fa    	ulnk      
    2460:	00 00 06    	return    

00002462 <_ConfigDac>:

void ConfigDac()
{
    SpiWaitTransmitEnd();
    2462:	55 02 07    	rcall     0x290e <_SpiWaitTransmitEnd> <.L15> <.bb> <.bf> <.eb> <.ef>
	//DAC_CS=0;
	SpiSend(0x1D); //15..14:00 - Control Reg; 13:0 - PD Amp Out; 12:1 - 2.5V;
    2464:	d0 c1 b3    	mov.b     #0x1d, w0
    2466:	4a 02 07    	rcall     0x28fc <_SpiSend> <.L5> <.bb> <.bf> <.eb> <.ef>
	//11:1 - Boost Mode On; 10:1 - Int Ref; 9:0 - Monitor Out Z; 8:1 - Thermo Mon On
	SpiSend(0x00);
    2468:	00 40 eb    	clr.b     w0
    246a:	48 02 07    	rcall     0x28fc <_SpiSend> <.L5> <.bb> <.bf> <.eb> <.ef>
	SpiWaitTransmitEnd();
    246c:	50 02 37    	bra       0x290e <_SpiWaitTransmitEnd> <.L15> <.bb> <.bf> <.eb> <.ef>
Disassembly of section .text.tn_sys_tslice_set:

0000246e <_tn_sys_tslice_set>:
/*
 * See comments in the header file (tn_sys.h)
 */
enum TN_RCode tn_sys_tslice_set(int priority, int ticks)
{
    246e:	88 9f be    	mov.d     w8, [w15++]
    2470:	00 04 be    	mov.d     w0, w8
   enum TN_RCode rc = TN_RC_OK;

   if (!tn_is_task_context()){
    2472:	00 2b 02    	call      0x2b00 <.eb>
    2474:	00 00 00 
    2476:	80 00 78    	mov.w     w0, w1
      rc = TN_RC_WCONTEXT;
    2478:	d0 ff 2f    	mov.w     #0xfffd, w0
    247a:	01 00 e0    	cp0.w     w1
    247c:	0d 00 32    	bra       Z, 0x2498 <.L46>
   } else if (0
         || priority < 0 || priority >= (TN_PRIORITIES_CNT - 1)
         || ticks    < 0 || ticks    >   TN_MAX_TIME_SLICE)
   {
      rc = TN_RC_WPARAM;
    247e:	b0 ff 2f    	mov.w     #0xfffb, w0
    2480:	ee 0f 54    	sub.w     w8, #0xe, [w15]
    2482:	0a 00 3e    	bra       GTU, 0x2498 <.L46>
    2484:	09 00 e0    	cp0.w     w9
    2486:	08 00 35    	bra       LT, 0x2498 <.L46>
   } else {
      TN_INTSAVE_DATA;

      TN_INT_DIS_SAVE();
    2488:	8a 16 02    	call      0x168a <_tn_arch_sr_save_int_dis>
    248a:	00 00 00 
      _tn_tslice_ticks[priority] = ticks;
    248c:	08 04 44    	add.w     w8, w8, w8
    248e:	c1 cc 20    	mov.w     #0xccc, w1
    2490:	89 30 7c    	mov.w     w9, [w1+w8]
      TN_INT_RESTORE();
    2492:	98 16 02    	call      0x1698 <_tn_arch_sr_restore>
    2494:	00 00 00 
    2496:	00 00 eb    	clr.w     w0

00002498 <.L46>:
   }
   return rc;
}
    2498:	4f 04 be    	mov.d     [--w15], w8
    249a:	00 00 06    	return    
Disassembly of section .text._check_param_create:

0000249c <__check_param_create>:
      const struct TN_Sem *sem,
      int start_count,
      int max_count
      )
{
    249c:	88 9f be    	mov.d     w8, [w15++]
    249e:	8a 1f 78    	mov.w     w10, [w15++]
    24a0:	01 04 78    	mov.w     w1, w8
    24a2:	02 05 78    	mov.w     w2, w10
   enum TN_RCode rc = TN_RC_OK;

   if (sem == TN_NULL){
      rc = TN_RC_WPARAM;
    24a4:	b9 ff 2f    	mov.w     #0xfffb, w9
    24a6:	00 00 e0    	cp0.w     w0
    24a8:	0c 00 32    	bra       Z, 0x24c2 <.L22>
   } else if (0
         || _tn_sem_is_valid(sem)
    24aa:	10 00 78    	mov.w     [w0], w0
    24ac:	d6 2b 02    	call      0x2bd6 <__tn_sem_is_valid.clone.0>
    24ae:	00 00 00 
    24b0:	00 00 e0    	cp0.w     w0
    24b2:	07 00 3a    	bra       NZ, 0x24c2 <.L22>
         || max_count <= 0
    24b4:	0a 00 e0    	cp0.w     w10
    24b6:	05 00 34    	bra       LE, 0x24c2 <.L22>
         || start_count < 0
    24b8:	08 00 e0    	cp0.w     w8
    24ba:	03 00 35    	bra       LT, 0x24c2 <.L22>
         || start_count > max_count
    24bc:	8a 0f 54    	sub.w     w8, w10, [w15]
    24be:	01 00 3c    	bra       GT, 0x24c2 <.L22>
    24c0:	80 04 eb    	clr.w     w9

000024c2 <.L22>:
         )
   {
      rc = TN_RC_WPARAM;
   }

   return rc;
}
    24c2:	09 00 78    	mov.w     w9, w0
    24c4:	4f 05 78    	mov.w     [--w15], w10
    24c6:	4f 04 be    	mov.d     [--w15], w8
    24c8:	00 00 06    	return    
Disassembly of section .text._update_task_priority:

000024ca <__update_task_priority>:
 *
 * Eventually, find out highest priority and set it.
 */
static void _update_task_priority(struct TN_Task *task)
{
    24ca:	88 9f be    	mov.d     w8, [w15++]
    24cc:	00 04 78    	mov.w     w0, w8
   int priority;

   //-- Now, we need to determine new priority of current task.
   //   We start from its base priority, but if there are other
   //   mutexes that are locked by the task, we should check
   //   what priority we should set.
   priority = task->base_priority;
    24ce:	e8 10 90    	mov.w     [w8+44], w1

   {
      struct TN_Mutex *mutex;

      //-- Iterate through all the mutexes locked by given task
      _tn_list_for_each_entry(
    24d0:	f8 0c 90    	mov.w     [w8+30], w9
    24d2:	05 00 37    	bra       0x24de <.L27>

000024d4 <.L25>:
            mutex, struct TN_Mutex, &(task->mutex_queue), mutex_queue
            )
      {
         priority = _find_max_priority_by_mutex(mutex, priority);
    24d4:	09 00 78    	mov.w     w9, w0
    24d6:	da 26 02    	call      0x26da <.eb>
    24d8:	00 00 00 
    24da:	80 00 78    	mov.w     w0, w1
    24dc:	c9 04 90    	mov.w     [w9+8], w9

000024de <.L27>:
    24de:	e6 84 54    	sub.w     w9, #0x6, w9
    24e0:	66 81 44    	add.w     w9, #0x6, w2
    24e2:	7c 00 44    	add.w     w8, #0x1c, w0
    24e4:	80 0f 51    	sub.w     w2, w0, [w15]
    24e6:	f6 ff 3a    	bra       NZ, 0x24d4 <.L25>
      }
   }

   //-- New priority determined, set it
   if (priority != task->priority){
    24e8:	78 10 90    	mov.w     [w8+46], w0
    24ea:	80 8f 50    	sub.w     w1, w0, [w15]
    24ec:	03 00 32    	bra       Z, 0x24f4 <.L23>
      _tn_change_task_priority(task, priority);
    24ee:	08 00 78    	mov.w     w8, w0
    24f0:	c2 28 02    	call      0x28c2 <.eb>
    24f2:	00 00 00 

000024f4 <.L23>:
   }
}
    24f4:	4f 04 be    	mov.d     [--w15], w8
    24f6:	00 00 06    	return    
Disassembly of section .text.tn_timer_cancel:

000024f8 <_tn_timer_cancel>:
/*
 * See comments in the header file (tn_timer.h)
 */
enum TN_RCode tn_timer_cancel(struct TN_Timer *timer)
{
    24f8:	88 9f be    	mov.d     w8, [w15++]
    24fa:	8a 1f 78    	mov.w     w10, [w15++]
    24fc:	80 04 78    	mov.w     w0, w9
   int sr_saved;
   enum TN_RCode rc = _check_param_generic(timer);
    24fe:	09 00 78    	mov.w     w9, w0
    2500:	0e 2a 02    	call      0x2a0e <__check_param_generic>
    2502:	00 00 00 
    2504:	00 04 78    	mov.w     w0, w8

   if (rc == TN_RC_OK){
    2506:	08 00 e0    	cp0.w     w8
    2508:	0a 00 3a    	bra       NZ, 0x251e <.L15>
      sr_saved = tn_arch_sr_save_int_dis();
    250a:	8a 16 02    	call      0x168a <_tn_arch_sr_save_int_dis>
    250c:	00 00 00 
    250e:	00 05 78    	mov.w     w0, w10
      rc = _tn_timer_cancel(timer);
    2510:	09 00 78    	mov.w     w9, w0
    2512:	aa 25 02    	call      0x25aa <.eb>
    2514:	00 00 00 
    2516:	00 04 78    	mov.w     w0, w8
      tn_arch_sr_restore(sr_saved);
    2518:	0a 00 78    	mov.w     w10, w0
    251a:	98 16 02    	call      0x1698 <_tn_arch_sr_restore>
    251c:	00 00 00 

0000251e <.L15>:
   }

   return rc;
}
    251e:	08 00 78    	mov.w     w8, w0
    2520:	4f 05 78    	mov.w     [--w15], w10
    2522:	4f 04 be    	mov.d     [--w15], w8
    2524:	00 00 06    	return    
Disassembly of section .text:

00002526 <_you_should_add_file___tn_app_check_c___to_the_project>:
 * tn_app_check.c to the project. It is called from tn_sys.c .
 */
void you_should_add_file___tn_app_check_c___to_the_project(void)
{
}
    2526:	00 00 06    	return    

00002528 <_tn_app_build_cfg_get>:

/**
 * Return build configuration used for application.
 */
const struct _TN_BuildCfg *tn_app_build_cfg_get(void)
{
   _TN_BUILD_CFG_STRUCT_FILL(&_build_cfg);
    2528:	40 f5 20    	mov.w     #0xf54, w0
    252a:	02 00 09    	repeat    #0x2
    252c:	00 18 eb    	clr.w     [w0++]
    252e:	60 00 b1    	sub.w     #0x6, w0
    2530:	02 f8 2f    	mov.w     #0xff80, w2
    2532:	10 01 61    	and.w     w2, [w0], w2
    2534:	01 e9 20    	mov.w     #0xe90, w1
    2536:	01 08 71    	ior.w     w2, w1, [w0]
    2538:	80 80 e8    	inc2.w    w0, w1
    253a:	72 c0 b3    	mov.b     #0x7, w2
    253c:	82 48 78    	mov.b     w2, [w1]
    253e:	f2 cf 2f    	mov.w     #0xfcff, w2
    2540:	11 01 61    	and.w     w2, [w1], w2
    2542:	02 90 a0    	bset.w    w2, #0x9
    2544:	82 08 78    	mov.w     w2, [w1]
    2546:	e4 00 40    	add.w     w0, #0x4, w1
    2548:	82 ff 2f    	mov.w     #0xfff8, w2
    254a:	11 01 61    	and.w     w2, [w1], w2
    254c:	02 20 a0    	bset.w    w2, #0x2
    254e:	82 08 78    	mov.w     w2, [w1]
   return &_build_cfg;
}
    2550:	00 00 06    	return    
Disassembly of section .text._sem_signal:

00002552 <__sem_signal>:
   return rc;
}

static _TN_INLINE enum TN_RCode _sem_signal(struct TN_Sem *sem)
{
    2552:	88 1f 78    	mov.w     w8, [w15++]
    2554:	00 04 78    	mov.w     w0, w8
   enum TN_RCode rc = TN_RC_OK;

   //-- wake up first (if any) task from the semaphore wait queue
   if (  !_tn_task_first_wait_complete(
    2556:	08 80 e8    	inc2.w    w8, w0
    2558:	00 02 eb    	clr.w     w4
    255a:	60 11 b8    	mul.uu    w2, #0x0, w2
    255c:	80 00 eb    	clr.w     w1
    255e:	9c 1e 02    	call      0x1e9c <.eb>
    2560:	00 00 00 
    2562:	80 00 78    	mov.w     w0, w1
    2564:	00 00 eb    	clr.w     w0
    2566:	01 00 e0    	cp0.w     w1
    2568:	08 00 3a    	bra       NZ, 0x257a <.L10>
            &sem->wait_queue, TN_RC_OK,
            TN_NULL, TN_NULL, TN_NULL
            )
      )
   {
      //-- no tasks are waiting for that semaphore,
      //   so, just increase its count if possible.
      if (sem->count < sem->max_count){
    256a:	b8 00 90    	mov.w     [w8+6], w1
    256c:	48 01 90    	mov.w     [w8+8], w2
         sem->count++;
      } else {
         rc = TN_RC_OVERFLOW;
    256e:	e0 ff 2f    	mov.w     #0xfffe, w0
    2570:	82 8f 50    	sub.w     w1, w2, [w15]
    2572:	03 00 3d    	bra       GE, 0x257a <.L10>
    2574:	81 00 e8    	inc.w     w1, w1
    2576:	31 04 98    	mov.w     w1, [w8+6]
    2578:	00 00 eb    	clr.w     w0

0000257a <.L10>:
      }
   }

   return rc;
}
    257a:	4f 04 78    	mov.w     [--w15], w8
    257c:	00 00 06    	return    
Disassembly of section .text._update_holders_priority_recursive:

0000257e <__update_holders_priority_recursive>:
 * - `mutex->holder` should point to the holder.
 *
 */
static void _update_holders_priority_recursive(struct TN_Task *task)
{
    257e:	88 1f 78    	mov.w     w8, [w15++]
    2580:	01 00 37    	bra       0x2584 <.L59>

00002582 <.L61>:
   struct TN_Task *holder;

in:
   //-- get the holder of mutex for which `task` is/was waiting for.
   //   NOTE that this holder might still hold the mutex
   //   (if `task` stopped waiting by timeout), or it might
   //   already release it. In either case, `mutex->holder` still
   //   points to the task which is/was holding the mutex.
   holder = _get_mutex_by_wait_queque(task->pwait_queue)->holder;

   //-- now, `holder` points to the (ex-)holder, i.e. to the task which is/was
   //   holding the mutex. Now, we iterate through all the mutexes that are
   //   still held by (ex-)holder, determining new priority for (ex-)holder.
   _update_task_priority(holder);

   //-- and check if the (ex-)holder is also waiting for some other mutex
   if (     (_tn_task_is_waiting(holder))
         && (holder->task_wait_reason == TN_WAIT_REASON_MUTEX_I)
    2582:	08 00 78    	mov.w     w8, w0

00002584 <.L59>:
    2584:	b0 08 90    	mov.w     [w0+22], w1
    2586:	00 00 eb    	clr.w     w0
    2588:	01 00 e0    	cp0.w     w1
    258a:	01 00 32    	bra       Z, 0x258e <.L57>
    258c:	01 80 e9    	dec2.w    w1, w0

0000258e <.L57>:
    258e:	00 0c 90    	mov.w     [w0+16], w8
    2590:	08 00 78    	mov.w     w8, w0
    2592:	ca 24 02    	call      0x24ca <__update_task_priority>
    2594:	00 00 00 
    2596:	08 18 90    	mov.w     [w8+48], w0
    2598:	0a 2d 02    	call      0x2d0a <.eb>
    259a:	00 00 00 
    259c:	00 00 e0    	cp0.w     w0
    259e:	03 00 32    	bra       Z, 0x25a6 <.L55>
    25a0:	18 18 90    	mov.w     [w8+50], w0
    25a2:	e7 0f 50    	sub.w     w0, #0x7, [w15]
    25a4:	ee ff 32    	bra       Z, 0x2582 <.L61>

000025a6 <.L55>:
      )
   {
      //-- holder is waiting for another mutex. In this case, call this
      //   function again, recursively, for the holder.
      //
      //   NOTE: as a workaround for crappy compilers that don't
      //   know what is tail-recursion, we have to use goto explicitly.
      //   (see SICP, section 1.2.1: Linear Recursion and Iteration)
      //
      //_update_holders_priority_recursive(holder);

      task = holder;
      goto in;
   }
}
    25a6:	4f 04 78    	mov.w     [--w15], w8
    25a8:	00 00 06    	return    
Disassembly of section .text._tn_timer_cancel:

000025aa <__tn_timer_cancel>:
/**
 * See comments in the _tn_timer.h file.
 */
enum TN_RCode _tn_timer_cancel(struct TN_Timer *timer)
{
    25aa:	88 1f 78    	mov.w     w8, [w15++]
    25ac:	00 04 78    	mov.w     w0, w8
   enum TN_RCode rc = TN_RC_OK;

   //-- interrupts should be disabled here
   _TN_BUG_ON( !TN_IS_INT_DISABLED() );

   if (_tn_timer_is_active(timer)){
    25ae:	08 00 78    	mov.w     w8, w0
    25b0:	80 2b 02    	call      0x2b80 <.eb>
    25b2:	00 00 00 
    25b4:	00 00 e0    	cp0.w     w0
    25b6:	0a 00 32    	bra       Z, 0x25cc <.L4>
      //-- reset timeout to zero (but this is actually not necessary)
      timer->timeout_cur = 0;
    25b8:	60 00 b8    	mul.uu    w0, #0x0, w0
    25ba:	50 04 98    	mov.w     w0, [w8+10]
    25bc:	61 04 98    	mov.w     w1, [w8+12]

      //-- remove entry from timer queue
      _tn_list_remove_entry(&(timer->timer_queue));
    25be:	08 84 e8    	inc2.w    w8, w8
    25c0:	08 00 78    	mov.w     w8, w0
    25c2:	3e 2c 02    	call      0x2c3e <.eb>
    25c4:	00 00 00 

      //-- reset the list
      _tn_list_reset(&(timer->timer_queue));
    25c6:	08 00 78    	mov.w     w8, w0
    25c8:	04 2d 02    	call      0x2d04 <.eb>
    25ca:	00 00 00 

000025cc <.L4>:
   }

   return rc;
}
    25cc:	00 00 eb    	clr.w     w0
    25ce:	4f 04 78    	mov.w     [--w15], w8
    25d0:	00 00 06    	return    
Disassembly of section .text._remove_entry_from_ready_queue:

000025d2 <__remove_entry_from_ready_queue>:
static _TN_INLINE TN_BOOL _remove_entry_from_ready_queue(
      struct TN_ListItem *list_node,
      int priority
      )
{
    25d2:	88 1f 78    	mov.w     w8, [w15++]
    25d4:	01 04 78    	mov.w     w1, w8
   TN_BOOL ret;

   //-- remove given list_node from the queue
   _tn_list_remove_entry(list_node);
    25d6:	3e 2c 02    	call      0x2c3e <.eb>
    25d8:	00 00 00 

   //-- check if the queue for given priority is empty now
   ret = _tn_list_is_empty(&(_tn_tasks_ready_list[priority]));
    25da:	c2 40 dd    	sl.w      w8, #0x2, w1
    25dc:	c0 c3 20    	mov.w     #0xc3c, w0
    25de:	00 80 40    	add.w     w1, w0, w0
    25e0:	3c 2a 02    	call      0x2a3c <.eb>
    25e2:	00 00 00 

   if (ret){
    25e4:	00 00 e0    	cp0.w     w0
    25e6:	06 00 32    	bra       Z, 0x25f4 <.L3>
      //-- list is empty, so, modify bitmask _tn_ready_to_run_bmp
      _tn_ready_to_run_bmp &= ~(1 << priority);
    25e8:	41 64 80    	mov.w     0xc88, w1
    25ea:	12 00 20    	mov.w     #0x1, w2
    25ec:	08 14 dd    	sl.w      w2, w8, w8
    25ee:	08 84 ea    	com.w     w8, w8
    25f0:	01 04 64    	and.w     w8, w1, w8
    25f2:	48 64 88    	mov.w     w8, 0xc88

000025f4 <.L3>:
   }

   return ret;
}
    25f4:	4f 04 78    	mov.w     [--w15], w8
    25f6:	00 00 06    	return    
Disassembly of section .text._task_delete:

000025f8 <__task_delete>:
   return rc;
}

static _TN_INLINE enum TN_RCode _task_delete(struct TN_Task *task)
{
    25f8:	88 1f 78    	mov.w     w8, [w15++]
    25fa:	00 04 78    	mov.w     w0, w8
   enum TN_RCode rc = TN_RC_OK;

   if (!_tn_task_is_dormant(task)){
    25fc:	08 18 90    	mov.w     [w8+48], w0
    25fe:	aa 2c 02    	call      0x2caa <.eb>
    2600:	00 00 00 
    2602:	80 00 78    	mov.w     w0, w1
      //-- Cannot delete not-terminated task
      rc = TN_RC_WSTATE;
    2604:	c0 ff 2f    	mov.w     #0xfffc, w0
    2606:	01 00 e0    	cp0.w     w1
    2608:	08 00 32    	bra       Z, 0x261a <.L22>
   } else {
      _tn_list_remove_entry(&(task->create_queue));
    260a:	78 00 44    	add.w     w8, #0x18, w0
    260c:	3e 2c 02    	call      0x2c3e <.eb>
    260e:	00 00 00 
      _tn_tasks_created_cnt--;
    2610:	00 64 80    	mov.w     0xc80, w0
    2612:	00 00 e9    	dec.w     w0, w0
    2614:	00 64 88    	mov.w     w0, 0xc80
      task->id_task = TN_ID_NONE;
    2616:	00 00 eb    	clr.w     w0
    2618:	10 04 98    	mov.w     w0, [w8+2]

0000261a <.L22>:
   }

   return rc;
}
    261a:	4f 04 78    	mov.w     [--w15], w8
    261c:	00 00 06    	return    
Disassembly of section .text._task_wakeup:

0000261e <__task_wakeup>:
/**
 * See the comment for tn_task_wakeup, tn_task_iwakeup in the tn_tasks.h
 */
static _TN_INLINE enum TN_RCode _task_wakeup(struct TN_Task *task)
{
    261e:	88 1f 78    	mov.w     w8, [w15++]
    2620:	00 04 78    	mov.w     w0, w8
   enum TN_RCode rc = TN_RC_OK;

   if (     (_tn_task_is_waiting(task))
    2622:	08 18 90    	mov.w     [w8+48], w0
    2624:	9e 2c 02    	call      0x2c9e <.eb>
    2626:	00 00 00 
    2628:	80 00 78    	mov.w     w0, w1
         && (task->task_wait_reason == TN_WAIT_REASON_SLEEP))
   {
      //-- Task is sleeping, so, let's wake it up.
      _tn_task_wait_complete(task, TN_RC_OK);

   } else {
      //-- Task isn't sleeping. Probably it is in WAIT state,
      //   but not because of call to tn_task_sleep().

      rc = TN_RC_WSTATE;
    262a:	c0 ff 2f    	mov.w     #0xfffc, w0
    262c:	01 00 e0    	cp0.w     w1
    262e:	08 00 32    	bra       Z, 0x2640 <.L68>
    2630:	98 18 90    	mov.w     [w8+50], w1
    2632:	e1 8f 50    	sub.w     w1, #0x1, [w15]
    2634:	05 00 3a    	bra       NZ, 0x2640 <.L68>
    2636:	80 00 eb    	clr.w     w1
    2638:	08 00 78    	mov.w     w8, w0
    263a:	4c 28 02    	call      0x284c <.eb>
    263c:	00 00 00 
    263e:	00 00 eb    	clr.w     w0

00002640 <.L68>:
   }

   return rc;
}
    2640:	4f 04 78    	mov.w     [--w15], w8
    2642:	00 00 06    	return    
Disassembly of section .text._tn_task_curr_to_wait_action.clone.1:

00002644 <__tn_task_curr_to_wait_action.clone.1>:

      //-- Remove all tasks from wait queue, returning the TN_RC_DELETED code.
      _tn_wait_queue_notify_deleted(&(sem->wait_queue));

      sem->id_sem = TN_ID_NONE;        //-- Semaphore does not exist now
    2644:	04 00 fa    	lnk       #0x4
    2646:	88 1f 78    	mov.w     w8, [w15++]
    2648:	00 04 78    	mov.w     w0, w8
      TN_INT_RESTORE();

      //-- we might need to switch context if _tn_wait_queue_notify_deleted()
      //   has woken up some high-priority task
      _tn_context_switch_pend_if_needed();
   }
    264a:	20 64 80    	mov.w     0xc84, w0
    264c:	d2 bf 9f    	mov.w     w2, [w15-6]
    264e:	e3 bf 9f    	mov.w     w3, [w15-4]
    2650:	ca 1d 02    	call      0x1dca <.eb>
    2652:	00 00 00 
   return rc;
    2654:	5f b9 97    	mov.w     [w15-6], w2
    2656:	ef b9 97    	mov.w     [w15-4], w3
    2658:	02 02 be    	mov.d     w2, w4
    265a:	22 00 20    	mov.w     #0x2, w2
    265c:	88 00 78    	mov.w     w8, w1
    265e:	20 64 80    	mov.w     0xc84, w0
    2660:	c8 20 02    	call      0x20c8 <.eb>
    2662:	00 00 00 
}
    2664:	4f 04 78    	mov.w     [--w15], w8
    2666:	00 80 fa    	ulnk      
    2668:	00 00 06    	return    
Disassembly of section .text._tn_task_curr_to_wait_action:

0000266a <__tn_task_curr_to_wait_action>:
         //   know what is tail-recursion, we have to use goto explicitly.
         //   (see SICP, section 1.2.1: Linear Recursion and Iteration)
         //
         //_task_priority_elevate(
         //      _get_mutex_by_wait_queque(task->pwait_queue)->holder,
    266a:	04 00 fa    	lnk       #0x4
    266c:	88 9f be    	mov.d     w8, [w15++]
    266e:	00 04 be    	mov.d     w0, w8
         //      priority
    2670:	20 64 80    	mov.w     0xc84, w0
    2672:	c2 bf 9f    	mov.w     w2, [w15-8]
    2674:	d3 bf 9f    	mov.w     w3, [w15-6]
    2676:	ca 1d 02    	call      0x1dca <.eb>
    2678:	00 00 00 
         //      );
    267a:	4f b9 97    	mov.w     [w15-8], w2
    267c:	df b9 97    	mov.w     [w15-6], w3
    267e:	02 02 be    	mov.d     w2, w4
    2680:	09 01 78    	mov.w     w9, w2
    2682:	88 00 78    	mov.w     w8, w1
    2684:	20 64 80    	mov.w     0xc84, w0
    2686:	c8 20 02    	call      0x20c8 <.eb>
    2688:	00 00 00 

    268a:	4f 04 be    	mov.d     [--w15], w8
    268c:	00 80 fa    	ulnk      
    268e:	00 00 06    	return    
Disassembly of section .text._tn_timer_create:

00002690 <__tn_timer_create>:
      struct TN_Timer  *timer,
      TN_TimerFunc     *func,
      void             *p_user_data
      )
{
    2690:	88 9f be    	mov.d     w8, [w15++]
    2692:	00 04 78    	mov.w     w0, w8
   enum TN_RCode rc = _tn_timer_set_func(timer, func, p_user_data);
    2694:	08 00 78    	mov.w     w8, w0
    2696:	70 2b 02    	call      0x2b70 <.eb>
    2698:	00 00 00 
    269a:	80 04 78    	mov.w     w0, w9

   if (rc != TN_RC_OK){
    269c:	09 00 e0    	cp0.w     w9
    269e:	08 00 3a    	bra       NZ, 0x26b0 <.L22>
      //-- just return rc as it is
   } else {

      _tn_list_reset(&(timer->timer_queue));
    26a0:	08 80 e8    	inc2.w    w8, w0
    26a2:	04 2d 02    	call      0x2d04 <.eb>
    26a4:	00 00 00 

#if TN_DYNAMIC_TICK
      timer->timeout = 0;
      timer->start_tick_cnt = 0;
#else
      timer->timeout_cur   = 0;
    26a6:	60 00 b8    	mul.uu    w0, #0x0, w0
    26a8:	50 04 98    	mov.w     w0, [w8+10]
    26aa:	61 04 98    	mov.w     w1, [w8+12]
#endif
      timer->id_timer      = TN_ID_TIMER;
    26ac:	c0 fb 27    	mov.w     #0x7fbc, w0
    26ae:	00 0c 78    	mov.w     w0, [w8]

000026b0 <.L22>:

   }
   return rc;
}
    26b0:	09 00 78    	mov.w     w9, w0
    26b2:	4f 04 be    	mov.d     [--w15], w8
    26b4:	00 00 06    	return    
Disassembly of section .text._tn_task_activate:

000026b6 <__tn_task_activate>:
/**
 * See comment in the _tn_tasks.h file
 */
enum TN_RCode _tn_task_activate(struct TN_Task *task)
{
    26b6:	88 1f 78    	mov.w     w8, [w15++]
    26b8:	00 04 78    	mov.w     w0, w8
   enum TN_RCode rc = TN_RC_OK;

   if (_tn_task_is_dormant(task)){
    26ba:	08 18 90    	mov.w     [w8+48], w0
    26bc:	aa 2c 02    	call      0x2caa <.eb>
    26be:	00 00 00 
    26c0:	80 00 78    	mov.w     w0, w1
      _tn_task_clear_dormant(task);
      _tn_task_set_runnable(task);
   } else {
      rc = TN_RC_WSTATE;
    26c2:	c0 ff 2f    	mov.w     #0xfffc, w0
    26c4:	01 00 e0    	cp0.w     w1
    26c6:	07 00 32    	bra       Z, 0x26d6 <.L102>
    26c8:	08 00 78    	mov.w     w8, w0
    26ca:	a6 28 02    	call      0x28a6 <.eb>
    26cc:	00 00 00 
    26ce:	08 00 78    	mov.w     w8, w0
    26d0:	68 27 02    	call      0x2768 <.eb>
    26d2:	00 00 00 
    26d4:	00 00 eb    	clr.w     w0

000026d6 <.L102>:
   }

   return rc;
}
    26d6:	4f 04 78    	mov.w     [--w15], w8
    26d8:	00 00 06    	return    
Disassembly of section .text._find_max_priority_by_mutex:

000026da <__find_max_priority_by_mutex>:
      )
{
   int priority = ref_priority;

   switch (mutex->protocol){
    26da:	70 01 90    	mov.w     [w0+14], w2
    26dc:	e1 0f 51    	sub.w     w2, #0x1, [w15]
    26de:	03 00 32    	bra       Z, 0x26e6 <.L9>
    26e0:	e2 0f 51    	sub.w     w2, #0x2, [w15]
    26e2:	09 00 3a    	bra       NZ, 0x26f6 <.L13>
    26e4:	06 00 37    	bra       0x26f2 <.L14>

000026e6 <.L9>:
    26e6:	10 09 90    	mov.w     [w0+18], w2
    26e8:	01 00 78    	mov.w     w1, w0
    26ea:	82 0f 50    	sub.w     w0, w2, [w15]
    26ec:	07 00 34    	bra       LE, 0x26fc <.L12>
    26ee:	02 00 78    	mov.w     w2, w0
    26f0:	00 00 06    	return    

000026f2 <.L14>:
      case TN_MUTEX_PROT_CEILING:
         //-- Mutex protocol is 'priority ceiling':
         //   just check specified ceil_priority of the mutex
         if (mutex->ceil_priority < priority){
            priority = mutex->ceil_priority;
         }
         break;

      case TN_MUTEX_PROT_INHERIT:
         //-- Mutex protocol is 'priority inheritance':
         //   we need to iterate through all the tasks that wait for 
         //   the mutex, checking if task's priority is higher than
         //   `ref_priority`.
         priority = _find_max_blocked_priority(mutex, priority);
    26f2:	de 28 04    	goto      0x28de <.eb>
    26f4:	00 00 00 

000026f6 <.L13>:
         break;

      default:
         //-- should never happen
         _TN_FATAL_ERROR("wrong mutex protocol=%d", mutex->protocol);
    26f6:	00 40 da    	break     
    26f8:	00 00 00    	nop       
         break;
    26fa:	01 00 78    	mov.w     w1, w0

000026fc <.L12>:
   }

   return priority;
}
    26fc:	00 00 06    	return    
Disassembly of section .text._tn_mutex_unlock_all_by_task:

000026fe <__tn_mutex_unlock_all_by_task>:
/**
 * See comment in _tn_mutex.h file
 */
void _tn_mutex_unlock_all_by_task(struct TN_Task *task)
{
    26fe:	88 9f be    	mov.d     w8, [w15++]
    2700:	80 04 78    	mov.w     w0, w9
   struct TN_Mutex *mutex;       //-- "cursor" for the loop iteration
   struct TN_Mutex *tmp_mutex;   //-- we need for temporary item because
                                 //   item is removed from the list
                                 //   in _mutex_do_unlock().

   _tn_list_for_each_entry_safe(
    2702:	79 08 90    	mov.w     [w9+30], w0
    2704:	66 00 50    	sub.w     w0, #0x6, w0
    2706:	40 04 90    	mov.w     [w0+8], w8
    2708:	66 04 54    	sub.w     w8, #0x6, w8
    270a:	05 00 37    	bra       0x2716 <.L115>

0000270c <.L116>:
         mutex, struct TN_Mutex, tmp_mutex, &(task->mutex_queue), mutex_queue
         )
   {
      //-- NOTE: we don't remove item from the list, because it is removed
      //   inside _mutex_do_unlock().
      _mutex_do_unlock(mutex);
    270c:	56 1e 02    	call      0x1e56 <.eb>
    270e:	00 00 00 
    2710:	c8 00 90    	mov.w     [w8+8], w1
    2712:	08 00 78    	mov.w     w8, w0
    2714:	66 84 50    	sub.w     w1, #0x6, w8

00002716 <.L115>:
    2716:	66 01 40    	add.w     w0, #0x6, w2
    2718:	fc 80 44    	add.w     w9, #0x1c, w1
    271a:	81 0f 51    	sub.w     w2, w1, [w15]
    271c:	f7 ff 3a    	bra       NZ, 0x270c <.L116>
   }
}
    271e:	4f 04 be    	mov.d     [--w15], w8
    2720:	00 00 06    	return    
Disassembly of section .text._tn_timers_init:

00002722 <__tn_timers_init>:
/**
 * See comments in the _tn_timer.h file.
 */
void _tn_timers_init(void)
{
    2722:	88 1f 78    	mov.w     w8, [w15++]
   int i;

   //-- reset system time
   _tn_sys_time_count = 0;
    2724:	60 00 b8    	mul.uu    w0, #0x0, w0
    2726:	00 79 88    	mov.w     w0, 0xf20
    2728:	11 79 88    	mov.w     w1, 0xf22

   //-- reset "generic" timers list
   _tn_list_reset(&_tn_timer_list__gen);
    272a:	c0 ef 20    	mov.w     #0xefc, w0
    272c:	04 2d 02    	call      0x2d04 <.eb>
    272e:	00 00 00 

   //-- reset all "tick" timer lists
   for (i = 0; i < TN_TICK_LISTS_CNT; i++){
    2730:	00 04 eb    	clr.w     w8

00002732 <.L2>:
      _tn_list_reset(&_tn_timer_list__tick[i]);
    2732:	c2 40 dd    	sl.w      w8, #0x2, w1
    2734:	00 f0 20    	mov.w     #0xf00, w0
    2736:	00 80 40    	add.w     w1, w0, w0
    2738:	04 2d 02    	call      0x2d04 <.eb>
    273a:	00 00 00 
    273c:	08 04 e8    	inc.w     w8, w8
    273e:	e8 0f 54    	sub.w     w8, #0x8, [w15]
    2740:	f8 ff 3a    	bra       NZ, 0x2732 <.L2>
   }
}
    2742:	4f 04 78    	mov.w     [--w15], w8
    2744:	00 00 06    	return    
Disassembly of section .text._on_task_wait_complete:

00002746 <__on_task_wait_complete>:
 *         But it seems too much overhead: we need to allocate a memory for that
 *         every time callback is registered.
 */
static void _on_task_wait_complete(struct TN_Task *task)
{
    2746:	88 1f 78    	mov.w     w8, [w15++]
    2748:	00 04 78    	mov.w     w0, w8
   //-- for mutex with priority inheritance, call special handler
   if (task->task_wait_reason == TN_WAIT_REASON_MUTEX_I){
    274a:	18 18 90    	mov.w     [w8+50], w0
    274c:	e7 0f 50    	sub.w     w0, #0x7, [w15]
    274e:	03 00 3a    	bra       NZ, 0x2756 <.L11>
      _tn_mutex_i_on_task_wait_complete(task);
    2750:	08 00 78    	mov.w     w8, w0
    2752:	56 2c 02    	call      0x2c56 <.eb>
    2754:	00 00 00 

00002756 <.L11>:
   }

   //-- for any mutex, call special handler
   if (     (task->task_wait_reason == TN_WAIT_REASON_MUTEX_I)
         || (task->task_wait_reason == TN_WAIT_REASON_MUTEX_C)
    2756:	18 18 90    	mov.w     [w8+50], w0
    2758:	66 00 50    	sub.w     w0, #0x6, w0
    275a:	e1 0f 50    	sub.w     w0, #0x1, [w15]
    275c:	03 00 3e    	bra       GTU, 0x2764 <.L10>
      )
   {
      _tn_mutex_on_task_wait_complete(task);
    275e:	08 00 78    	mov.w     w8, w0
    2760:	60 2b 02    	call      0x2b60 <__tn_mutex_on_task_wait_complete>
    2762:	00 00 00 

00002764 <.L10>:
   }

}
    2764:	4f 04 78    	mov.w     [--w15], w8
    2766:	00 00 06    	return    
Disassembly of section .text._tn_task_set_runnable:

00002768 <__tn_task_set_runnable>:
/**
 * See comment in the _tn_tasks.h file
 */
void _tn_task_set_runnable(struct TN_Task * task)
{
    2768:	88 9f be    	mov.d     w8, [w15++]
    276a:	00 04 78    	mov.w     w0, w8
#if TN_DEBUG
   //-- task_state should be NONE here
   if (task->task_state != TN_TASK_STATE_NONE){
      _TN_FATAL_ERROR("");
   }
#endif

   int priority;

   priority          = task->priority;
    276c:	f8 14 90    	mov.w     [w8+46], w9
   task->task_state  |= TN_TASK_STATE_RUNNABLE;
    276e:	08 18 90    	mov.w     [w8+48], w0
    2770:	00 00 a0    	bset.w    w0, #0x0
    2772:	00 1c 98    	mov.w     w0, [w8+48]

   //-- Add the task to the end of 'ready queue' for the current priority
   _add_entry_to_ready_queue(&(task->task_queue), priority);
    2774:	64 00 44    	add.w     w8, #0x4, w0
    2776:	89 00 78    	mov.w     w9, w1
    2778:	ac 27 02    	call      0x27ac <.eb>
    277a:	00 00 00 

   //-- less value - greater priority, so '<' operation is used here
   if (priority < _tn_next_task_to_run->priority){
    277c:	30 64 80    	mov.w     0xc86, w0
    277e:	70 10 90    	mov.w     [w0+46], w0
    2780:	80 8f 54    	sub.w     w9, w0, [w15]
    2782:	01 00 3d    	bra       GE, 0x2786 <.L47>
      _tn_next_task_to_run = task;
    2784:	38 64 88    	mov.w     w8, 0xc86

00002786 <.L47>:
   }
}
    2786:	4f 04 be    	mov.d     [--w15], w8
    2788:	00 00 06    	return    
Disassembly of section .text._tn_wait_queue_notify_deleted:

0000278a <__tn_wait_queue_notify_deleted>:
/**
 * See comment in the _tn_sys.h file
 */
void _tn_wait_queue_notify_deleted(struct TN_ListItem *wait_queue)
{
    278a:	88 9f be    	mov.d     w8, [w15++]
    278c:	80 04 78    	mov.w     w0, w9
   struct TN_Task *task;         //-- "cursor" for the loop iteration
   struct TN_Task *tmp_task;     //-- we need for temporary item because
                                 //   item is removed from the list
                                 //   in _tn_mutex_do_unlock().


   //-- iterate through all tasks in the wait_queue,
   //   calling _tn_task_wait_complete() for each task,
   //   and setting TN_RC_DELETED as a wait return code.
   _tn_list_for_each_entry_safe(
    278e:	19 00 90    	mov.w     [w9+2], w0
    2790:	64 00 50    	sub.w     w0, #0x4, w0
    2792:	30 04 90    	mov.w     [w0+6], w8
    2794:	64 04 54    	sub.w     w8, #0x4, w8
    2796:	05 00 37    	bra       0x27a2 <.L53>

00002798 <.L54>:
         task, struct TN_Task, tmp_task, wait_queue, task_queue 
         )
   {
      //-- call _tn_task_wait_complete for every task
      _tn_task_wait_complete(task, TN_RC_DELETED);
    2798:	ec 27 02    	call      0x27ec <.eb>
    279a:	00 00 00 
    279c:	b8 00 90    	mov.w     [w8+6], w1
    279e:	08 00 78    	mov.w     w8, w0
    27a0:	64 84 50    	sub.w     w1, #0x4, w8

000027a2 <.L53>:
    27a2:	e4 00 40    	add.w     w0, #0x4, w1
    27a4:	81 8f 54    	sub.w     w9, w1, [w15]
    27a6:	f8 ff 3a    	bra       NZ, 0x2798 <.L54>
   }

#if TN_DEBUG
   if (!_tn_list_is_empty(wait_queue)){
      _TN_FATAL_ERROR("");
   }
#endif
}
    27a8:	4f 04 be    	mov.d     [--w15], w8
    27aa:	00 00 06    	return    
Disassembly of section .text._add_entry_to_ready_queue:

000027ac <__add_entry_to_ready_queue>:

static _TN_INLINE void _add_entry_to_ready_queue(
      struct TN_ListItem *list_node, int priority
      )
{
    27ac:	88 1f 78    	mov.w     w8, [w15++]
    27ae:	00 01 78    	mov.w     w0, w2
    27b0:	01 04 78    	mov.w     w1, w8
   _tn_list_add_tail(&(_tn_tasks_ready_list[priority]), list_node);
    27b2:	c2 40 dd    	sl.w      w8, #0x2, w1
    27b4:	c0 c3 20    	mov.w     #0xc3c, w0
    27b6:	00 80 40    	add.w     w1, w0, w0
    27b8:	82 00 78    	mov.w     w2, w1
    27ba:	32 2c 02    	call      0x2c32 <.eb>
    27bc:	00 00 00 
   _tn_ready_to_run_bmp |= (1 << priority);
    27be:	40 64 80    	mov.w     0xc88, w0
    27c0:	11 00 20    	mov.w     #0x1, w1
    27c2:	08 0c dd    	sl.w      w1, w8, w8
    27c4:	08 04 70    	ior.w     w0, w8, w8
    27c6:	48 64 88    	mov.w     w8, 0xc88
}
    27c8:	4f 04 78    	mov.w     [--w15], w8
    27ca:	00 00 06    	return    
Disassembly of section .text._task_release_wait:

000027cc <__task_release_wait>:
   return rc;
}

static _TN_INLINE enum TN_RCode _task_release_wait(struct TN_Task *task)
{
    27cc:	88 1f 78    	mov.w     w8, [w15++]
    27ce:	00 04 78    	mov.w     w0, w8
   enum TN_RCode rc = TN_RC_OK;

   if ((_tn_task_is_waiting(task))){
    27d0:	08 18 90    	mov.w     [w8+48], w0
    27d2:	9e 2c 02    	call      0x2c9e <.eb>
    27d4:	00 00 00 
    27d6:	80 00 78    	mov.w     w0, w1
      //-- task is in WAIT state, so, let's release it from that state,
      //   returning TN_RC_FORCED.
      _tn_task_wait_complete(task, TN_RC_FORCED);
   } else {
      rc = TN_RC_WSTATE;
    27d8:	c0 ff 2f    	mov.w     #0xfffc, w0
    27da:	01 00 e0    	cp0.w     w1
    27dc:	05 00 32    	bra       Z, 0x27e8 <.L65>
    27de:	71 ff 2f    	mov.w     #0xfff7, w1
    27e0:	08 00 78    	mov.w     w8, w0
    27e2:	4c 28 02    	call      0x284c <.eb>
    27e4:	00 00 00 
    27e6:	00 00 eb    	clr.w     w0

000027e8 <.L65>:
   }

   return rc;
}
    27e8:	4f 04 78    	mov.w     [--w15], w8
    27ea:	00 00 06    	return    
Disassembly of section .text._tn_task_wait_complete.clone.2:

000027ec <__tn_task_wait_complete.clone.2>:
      if (task_prev->profiler.timing.max_consecutive_run_time < cur_run_time){
         task_prev->profiler.timing.max_consecutive_run_time = cur_run_time;
      }

      //-- update current task state
    27ec:	88 1f 78    	mov.w     w8, [w15++]
    27ee:	00 04 78    	mov.w     w0, w8
      task_prev->profiler.last_tick_cnt      = cur_tick_cnt;
#if TN_PROFILER_WAIT_TIME
    27f0:	81 ff 2f    	mov.w     #0xfff8, w1
    27f2:	08 00 78    	mov.w     w8, w0
    27f4:	e8 21 02    	call      0x21e8 <.eb>
    27f6:	00 00 00 
      task_prev->profiler.last_wait_reason   = task_prev->task_wait_reason;
#endif
   }
    27f8:	08 18 90    	mov.w     [w8+48], w0
    27fa:	e6 2c 02    	call      0x2ce6 <.eb>
    27fc:	00 00 00 
    27fe:	00 00 e0    	cp0.w     w0
    2800:	03 00 3a    	bra       NZ, 0x2808 <.L27>
   // }}}
    2802:	08 00 78    	mov.w     w8, w0
    2804:	68 27 02    	call      0x2768 <.eb>
    2806:	00 00 00 

00002808 <.L27>:

   //-- handle task_new (the one that was waiting and going to run) {{{
   {
    2808:	4f 04 78    	mov.w     [--w15], w8
    280a:	00 00 06    	return    
Disassembly of section .text._tn_task_wait_complete.clone.4:

0000280c <__tn_task_wait_complete.clone.4>:


   if (task->priority <= priority){
      //-- Task's priority is alreasy higher than given one, so,
      //   don't do anything
    280c:	88 1f 78    	mov.w     w8, [w15++]
    280e:	00 04 78    	mov.w     w0, w8
   } else if (_tn_task_is_runnable(task)){
      //-- Task is runnable, so, set new priority to it
    2810:	80 00 eb    	clr.w     w1
    2812:	08 00 78    	mov.w     w8, w0
    2814:	e8 21 02    	call      0x21e8 <.eb>
    2816:	00 00 00 
      //   (for runnable tasks, we should use special function for that)
      _tn_change_running_task_priority(task, priority);
   } else {
    2818:	08 18 90    	mov.w     [w8+48], w0
    281a:	10 2d 02    	call      0x2d10 <.eb>
    281c:	00 00 00 
    281e:	00 00 e0    	cp0.w     w0
    2820:	03 00 3a    	bra       NZ, 0x2828 <.L83>
      //-- Task is not runnable, so, just set new priority to it
    2822:	08 00 78    	mov.w     w8, w0
    2824:	68 27 02    	call      0x2768 <.eb>
    2826:	00 00 00 

00002828 <.L83>:
      task->priority = priority;

      //-- and check if the task is waiting for mutex
    2828:	4f 04 78    	mov.w     [--w15], w8
    282a:	00 00 06    	return    
Disassembly of section .text.tn_timer_create:

0000282c <_tn_timer_create>:
      struct TN_Timer  *timer,
      TN_TimerFunc     *func,
      void             *p_user_data
      )
{
    282c:	88 9f be    	mov.d     w8, [w15++]
    282e:	8a 1f 78    	mov.w     w10, [w15++]
    2830:	00 04 be    	mov.d     w0, w8
    2832:	02 05 78    	mov.w     w2, w10
   enum TN_RCode rc = _check_param_create(timer, func);
    2834:	08 00 78    	mov.w     w8, w0
    2836:	7c 29 02    	call      0x297c <.eb>
    2838:	00 00 00 

   if (rc != TN_RC_OK){
    283a:	00 00 e0    	cp0.w     w0
    283c:	04 00 3a    	bra       NZ, 0x2846 <.L24>
      //-- just return rc as it is
   } else {
      rc = _tn_timer_create(timer, func, p_user_data);
    283e:	0a 01 78    	mov.w     w10, w2
    2840:	08 00 be    	mov.d     w8, w0
    2842:	90 26 02    	call      0x2690 <.eb>
    2844:	00 00 00 

00002846 <.L24>:
   }

   return rc;
}
    2846:	4f 05 78    	mov.w     [--w15], w10
    2848:	4f 04 be    	mov.d     [--w15], w8
    284a:	00 00 06    	return    
Disassembly of section .text._tn_task_wait_complete:

0000284c <__tn_task_wait_complete>:

/**
 * Returns TN_TRUE if there are no more items in the runqueue for given
 * priority, TN_FALSE otherwise.
 */
    284c:	88 1f 78    	mov.w     w8, [w15++]
    284e:	00 04 78    	mov.w     w0, w8
static _TN_INLINE TN_BOOL _remove_entry_from_ready_queue(
    2850:	08 00 78    	mov.w     w8, w0
    2852:	e8 21 02    	call      0x21e8 <.eb>
    2854:	00 00 00 
      struct TN_ListItem *list_node,
      int priority
      )
    2856:	08 18 90    	mov.w     [w8+48], w0
    2858:	a4 2c 02    	call      0x2ca4 <.eb>
    285a:	00 00 00 
    285c:	00 00 e0    	cp0.w     w0
    285e:	03 00 3a    	bra       NZ, 0x2866 <.L62>
{
    2860:	08 00 78    	mov.w     w8, w0
    2862:	68 27 02    	call      0x2768 <.eb>
    2864:	00 00 00 

00002866 <.L62>:
   TN_BOOL ret;

   //-- remove given list_node from the queue
    2866:	4f 04 78    	mov.w     [--w15], w8
    2868:	00 00 06    	return    
Disassembly of section .text.tn_tick_int_processing:

0000286a <_tn_tick_int_processing>:
/*
 * See comments in the header file (tn_sys.h)
 */
void tn_tick_int_processing(void)
{
    286a:	88 1f 78    	mov.w     w8, [w15++]
   TN_INTSAVE_DATA_INT;

   TN_INT_IDIS_SAVE();
    286c:	8a 16 02    	call      0x168a <_tn_arch_sr_save_int_dis>
    286e:	00 00 00 
    2870:	00 04 78    	mov.w     w0, w8

   //-- check stack overflow
   _tn_sys_stack_overflow_check(_tn_curr_run_task);

   //-- manage timers
   _tn_timers_tick_proceed();
    2872:	04 18 02    	call      0x1804 <.eb>
    2874:	00 00 00 

   //-- manage round-robin (if used)
   _round_robin_manage();
    2876:	ec 1c 02    	call      0x1cec <.eb>
    2878:	00 00 00 

   TN_INT_IRESTORE();
    287a:	08 00 78    	mov.w     w8, w0
    287c:	98 16 02    	call      0x1698 <_tn_arch_sr_restore>
    287e:	00 00 00 
   _TN_CONTEXT_SWITCH_IPEND_IF_NEEDED();
    2880:	ac 2b 02    	call      0x2bac <.eb>
    2882:	00 00 00 
}
    2884:	4f 04 78    	mov.w     [--w15], w8
    2886:	00 00 06    	return    
Disassembly of section .text.tn_sys_time_get:

00002888 <_tn_sys_time_get>:
/*
 * See comments in the header file (tn_sys.h)
 */
TN_TickCnt tn_sys_time_get(void)
{
    2888:	88 1f 78    	mov.w     w8, [w15++]
    288a:	8a 9f be    	mov.d     w10, [w15++]
   TN_TickCnt ret;
   TN_INTSAVE_DATA;

   TN_INT_DIS_SAVE();
    288c:	8a 16 02    	call      0x168a <_tn_arch_sr_save_int_dis>
    288e:	00 00 00 
    2890:	00 04 78    	mov.w     w0, w8
   ret = _tn_timer_sys_time_get();
    2892:	da 2c 02    	call      0x2cda <.eb>
    2894:	00 00 00 
    2896:	00 05 be    	mov.d     w0, w10
   TN_INT_RESTORE();
    2898:	08 00 78    	mov.w     w8, w0
    289a:	98 16 02    	call      0x1698 <_tn_arch_sr_restore>
    289c:	00 00 00 

   return ret;
}
    289e:	0a 00 be    	mov.d     w10, w0
    28a0:	4f 05 be    	mov.d     [--w15], w10
    28a2:	4f 04 78    	mov.w     [--w15], w8
    28a4:	00 00 06    	return    
Disassembly of section .text._tn_task_clear_dormant:

000028a6 <__tn_task_clear_dormant>:
   task->tslice_count  = 0;
}

void _tn_task_clear_dormant(struct TN_Task *task)
{
    28a6:	88 1f 78    	mov.w     w8, [w15++]
    28a8:	00 04 78    	mov.w     w0, w8
#if TN_DEBUG
   //-- task_state should be exactly TN_TASK_STATE_DORMANT here
   if (task->task_state != TN_TASK_STATE_DORMANT){
      _TN_FATAL_ERROR("");
   }
#endif

   //--- Init task stack, save pointer to task top of stack,
   //    when not running
   task->stack_cur_pt = _tn_arch_stack_init(
    28aa:	d8 11 90    	mov.w     [w8+42], w3
    28ac:	38 11 90    	mov.w     [w8+38], w2
    28ae:	a8 10 90    	mov.w     [w8+36], w1
    28b0:	48 10 90    	mov.w     [w8+40], w0
    28b2:	8c 1b 02    	call      0x1b8c <.eb>
    28b4:	00 00 00 
    28b6:	00 0c 78    	mov.w     w0, [w8]
         task->task_func_addr,
         task->stack_low_addr,
         task->stack_high_addr,
         task->task_func_param
         );

   task->task_state &= ~TN_TASK_STATE_DORMANT;
    28b8:	08 18 90    	mov.w     [w8+48], w0
    28ba:	00 30 a1    	bclr.w    w0, #0x3
    28bc:	00 1c 98    	mov.w     w0, [w8+48]


#if TN_PROFILER
   //-- If profiler is present, set last tick count
   //   to current tick count value
   task->profiler.last_tick_cnt = _tn_timer_sys_time_get();
#endif
}
    28be:	4f 04 78    	mov.w     [--w15], w8
    28c0:	00 00 06    	return    
Disassembly of section .text._tn_change_task_priority:

000028c2 <__tn_change_task_priority>:
/**
 * See comment in the _tn_tasks.h file
 */
void _tn_change_task_priority(struct TN_Task *task, int new_priority)
{
    28c2:	88 9f be    	mov.d     w8, [w15++]
    28c4:	00 04 be    	mov.d     w0, w8
   if (_tn_task_is_runnable(task)){
    28c6:	08 18 90    	mov.w     [w8+48], w0
    28c8:	20 2d 02    	call      0x2d20 <__tn_task_is_runnable.clone.0>
    28ca:	00 00 00 
    28cc:	00 00 e0    	cp0.w     w0
    28ce:	04 00 32    	bra       Z, 0x28d8 <.L130>
      _tn_change_running_task_priority(task, new_priority);
    28d0:	08 00 be    	mov.d     w8, w0
    28d2:	86 22 02    	call      0x2286 <.eb>
    28d4:	00 00 00 
    28d6:	01 00 37    	bra       0x28da <.L129>

000028d8 <.L130>:
   } else {
      task->priority = new_priority;
    28d8:	79 14 98    	mov.w     w9, [w8+46]

000028da <.L129>:
   }
}
    28da:	4f 04 be    	mov.d     [--w15], w8
    28dc:	00 00 06    	return    
Disassembly of section .text._find_max_blocked_priority:

000028de <__find_max_blocked_priority>:
   priority = ref_priority;

   //-- Iterate through all the tasks that wait for lock mutex.
   //   Highest priority (i.e. lowest number) will be returned eventually.
   _tn_list_for_each_entry(
    28de:	20 01 90    	mov.w     [w0+4], w2
    28e0:	05 00 37    	bra       0x28ec <.L6>

000028e2 <.L5>:
    28e2:	f2 11 90    	mov.w     [w2+46], w3
    28e4:	83 8f 50    	sub.w     w1, w3, [w15]
    28e6:	01 00 34    	bra       LE, 0x28ea <.L4>
    28e8:	83 00 78    	mov.w     w3, w1

000028ea <.L4>:
    28ea:	32 01 90    	mov.w     [w2+6], w2

000028ec <.L6>:
    28ec:	64 01 51    	sub.w     w2, #0x4, w2
    28ee:	64 02 41    	add.w     w2, #0x4, w4
    28f0:	80 81 e8    	inc2.w    w0, w3
    28f2:	83 0f 52    	sub.w     w4, w3, [w15]
    28f4:	f6 ff 3a    	bra       NZ, 0x28e2 <.L5>
         task, struct TN_Task, &(mutex->wait_queue), task_queue
         )
   {
      if (task->priority < priority){
         //--  task priority is higher, remember it
         priority = task->priority;
      }
   }

   return priority;
}
    28f6:	01 00 78    	mov.w     w1, w0
    28f8:	00 00 06    	return    
Disassembly of section .text:

000028fa <_SpiConfig>:
//Конфигурирование SPI-интерфейса
void SpiConfig()
{
    
}
    28fa:	00 00 06    	return    

000028fc <_SpiSend>:
//Синхронная отправка байта (ждет возможности начала отправки)
void inline SpiSend(BYTE val)
{	
    while(SpiTxBufFull);
    28fc:	40 22 ab    	btst.b    0x240, #0x1
    28fe:	fe ff 3a    	bra       NZ, 0x28fc <_SpiSend> <.L5> <.bb> <.bf> <.eb> <.ef>
    SPI1BUF=val;
    2900:	00 80 fb    	ze        w0, w0
    2902:	40 12 88    	mov.w     w0, 0x248
}
    2904:	00 00 06    	return    

00002906 <_SpiReceive>:

//Синхронный прием байта (ждет получения)
BYTE inline SpiReceive()
{
    while(SpiRcBufFull);
    2906:	40 02 ab    	btst.b    0x240, #0x0
    2908:	fe ff 3a    	bra       NZ, 0x2906 <_SpiReceive> <.L10> <.bb> <.bf> <.eb> <.ef>
    return SPI1BUF;
    290a:	40 12 80    	mov.w     0x248, w0
}
    290c:	00 00 06    	return    

0000290e <_SpiWaitTransmitEnd>:

//Ожидание окончания отправки
void inline SpiWaitTransmitEnd()
{
    while(SpiRcBufFull);
    290e:	40 02 ab    	btst.b    0x240, #0x0
    2910:	fe ff 3a    	bra       NZ, 0x290e <_SpiWaitTransmitEnd> <.L15> <.bb> <.bf> <.eb> <.ef>
}
    2912:	00 00 06    	return    
Disassembly of section .text._find_next_task_to_run:

00002914 <__find_next_task_to_run>:

#ifdef _TN_FFS
   //-- architecture-dependent way to find-first-set-bit is available,
   //   so use it.
   priority = _TN_FFS(_tn_ready_to_run_bmp);
    2914:	40 64 80    	mov.w     0xc88, w0
    2916:	ce 16 02    	call      0x16ce <__tn_p24_ffs_asm>
    2918:	00 00 00 
   priority--;
#else
   //-- there is no architecture-dependent way to find-first-set-bit available,
   //   so, use generic (somewhat naive) algorithm.
   int i;
   unsigned int mask;

   mask = 1;
   priority = 0;

   for (i = 0; i < TN_PRIORITIES_CNT; i++){
      //-- for each bit in bmp
      if (_tn_ready_to_run_bmp & mask){
         priority = i;
         break;
      }
      mask = (mask << 1);
   }
#endif

   //-- set task to run: fetch next task from ready list of appropriate
   //   priority.
   _tn_next_task_to_run = _tn_get_task_by_tsk_queue(
    291a:	42 00 dd    	sl.w      w0, #0x2, w0
    291c:	00 80 e9    	dec2.w    w0, w0
    291e:	c1 c3 20    	mov.w     #0xc3c, w1
    2920:	e1 00 78    	mov.w     [w1+w0], w1
    2922:	00 00 eb    	clr.w     w0
    2924:	01 00 e0    	cp0.w     w1
    2926:	01 00 32    	bra       Z, 0x292a <.L6>
    2928:	64 80 50    	sub.w     w1, #0x4, w0

0000292a <.L6>:
    292a:	30 64 88    	mov.w     w0, 0xc86
         _tn_tasks_ready_list[priority].next
         );
}
    292c:	00 00 06    	return    
Disassembly of section .text._tn_task_curr_to_wait_action.clone.5:

0000292e <__tn_task_curr_to_wait_action.clone.5>:

   if (ret){
      //-- list is empty, so, modify bitmask _tn_ready_to_run_bmp
      _tn_ready_to_run_bmp &= ~(1 << priority);
   }
    292e:	88 9f be    	mov.d     w8, [w15++]
    2930:	00 04 be    	mov.d     w0, w8

   return ret;
}

static _TN_INLINE void _add_entry_to_ready_queue(
      struct TN_ListItem *list_node, int priority
    2932:	20 64 80    	mov.w     0xc84, w0
    2934:	ca 1d 02    	call      0x1dca <.eb>
    2936:	00 00 00 
      )
    2938:	08 02 be    	mov.d     w8, w4
    293a:	12 00 20    	mov.w     #0x1, w2
    293c:	80 00 eb    	clr.w     w1
    293e:	20 64 80    	mov.w     0xc84, w0
    2940:	c8 20 02    	call      0x20c8 <.eb>
    2942:	00 00 00 
{
    2944:	4f 04 be    	mov.d     [--w15], w8
    2946:	00 00 06    	return    
Disassembly of section .text._tn_arch_sys_start:

00002948 <__tn_arch_sys_start>:
{
   //-- set interrupt stack pointers.
   //   We need to subtract additional 1 from SPLIM because
   //   PIC24/dsPIC hardware works this way.
   _tn_p24_int_stack_low_addr = int_stack;
    2948:	d0 7a 88    	mov.w     w0, 0xf5a
   _tn_p24_int_splim = int_stack + int_stack_size - 1 - 1;
    294a:	81 80 e9    	dec2.w    w1, w1
    294c:	81 80 40    	add.w     w1, w1, w1
    294e:	01 00 40    	add.w     w0, w1, w0
    2950:	e0 7a 88    	mov.w     w0, 0xf5c

00002952 <.bb>:


   //-- set up software interrupt for context switching
   TN_BFA(TN_BFA_WR, IPC0, INT0IP, 1); //-- set lowest interrupt priority
    2952:	20 05 80    	mov.w     0xa4, w0
    2954:	00 00 a2    	btg.w     w0, #0x0
    2956:	67 00 60    	and.w     w0, #0x7, w0
    2958:	a4 a0 b6    	xor.w     0xa4

0000295a <.bb>:
                                       //   for context switch interrupt
   TN_BFA(TN_BFA_WR, IFS0, INT0IF, 0); //-- clear interrupt flag
    295a:	84 00 a9    	bclr.b    0x84, #0x0

0000295c <.bb>:
   TN_BFA(TN_BFA_WR, IEC0, INT0IE, 1); //-- enable interrupt
    295c:	94 00 a8    	bset.b    0x94, #0x0

0000295e <.eb>:

   //-- perform first context switch
   _tn_arch_context_switch_now_nosave();
    295e:	1c 16 04    	goto      0x161c <__tn_arch_context_switch_now_nosave>
    2960:	00 00 00 
Disassembly of section .text._tn_list_remove_head:

00002962 <__tn_list_remove_head>:
/*
 * See comments in the header file tn_list.h
 */
struct TN_ListItem *_tn_list_remove_head(struct TN_ListItem *list)
{
    2962:	80 00 78    	mov.w     w0, w1
   //-- Remove and return an entry at the head of the queue.

   struct TN_ListItem *entry = TN_NULL;
    2964:	00 00 eb    	clr.w     w0

   if (list != TN_NULL && list->next != list){
    2966:	01 00 e0    	cp0.w     w1
    2968:	08 00 32    	bra       Z, 0x297a <.L8>
    296a:	11 00 90    	mov.w     [w1+2], w0
    296c:	81 0f 50    	sub.w     w0, w1, [w15]
    296e:	04 00 32    	bra       Z, 0x2978 <.L10>
      entry             = list->next;
      entry->next->prev = list;
    2970:	10 01 90    	mov.w     [w0+2], w2
    2972:	01 09 78    	mov.w     w1, [w2]
      list->next        = entry->next;
    2974:	92 00 98    	mov.w     w2, [w1+2]
    2976:	00 00 06    	return    

00002978 <.L10>:
    2978:	00 00 eb    	clr.w     w0

0000297a <.L8>:
   } else {
      //-- TN_NULL will be returned
   }

   return entry;
}
    297a:	00 00 06    	return    
Disassembly of section .text._check_param_create.clone.1:

0000297c <__check_param_create.clone.1>:

   return rc;
}

static _TN_INLINE enum TN_RCode _check_param_create(
    297c:	88 1f 78    	mov.w     w8, [w15++]
      const struct TN_Timer  *timer,
      TN_TimerFunc     *func
      )
{
   enum TN_RCode rc = TN_RC_OK;

   if (timer == TN_NULL){
      rc = TN_RC_WPARAM;
    297e:	b8 ff 2f    	mov.w     #0xfffb, w8
    2980:	00 00 e0    	cp0.w     w0
    2982:	06 00 32    	bra       Z, 0x2990 <.L7>
   } else if (_tn_timer_is_valid(timer)){
    2984:	10 00 78    	mov.w     [w0], w0
    2986:	00 2c 02    	call      0x2c00 <.eb>
    2988:	00 00 00 
    298a:	00 00 e0    	cp0.w     w0
    298c:	01 00 3a    	bra       NZ, 0x2990 <.L7>
    298e:	00 04 eb    	clr.w     w8

00002990 <.L7>:
      rc = TN_RC_WPARAM;
   }

   return rc;
}
    2990:	08 00 78    	mov.w     w8, w0
    2992:	4f 04 78    	mov.w     [--w15], w8
    2994:	00 00 06    	return    
Disassembly of section .text._check_param_generic:

00002996 <__check_param_generic>:
{
   enum TN_RCode rc = TN_RC_OK;

   if (task == TN_NULL){
      rc = TN_RC_WPARAM;
    2996:	b1 ff 2f    	mov.w     #0xfffb, w1
    2998:	00 00 e0    	cp0.w     w0
    299a:	07 00 32    	bra       Z, 0x29aa <.L26>
   } else if (!_tn_task_is_valid(task)){
    299c:	10 00 90    	mov.w     [w0+2], w0
    299e:	9e 2b 02    	call      0x2b9e <.eb>
    29a0:	00 00 00 
      rc = TN_RC_INVALID_OBJ;
    29a2:	91 ff 2f    	mov.w     #0xfff9, w1
    29a4:	00 00 e0    	cp0.w     w0
    29a6:	01 00 32    	bra       Z, 0x29aa <.L26>
    29a8:	80 00 eb    	clr.w     w1

000029aa <.L26>:
   }

   return rc;
}
    29aa:	01 00 78    	mov.w     w1, w0
    29ac:	00 00 06    	return    
Disassembly of section .text._tn_is_mutex_locked_by_task:

000029ae <__tn_is_mutex_locked_by_task>:
{
   TN_BOOL ret = TN_FALSE;

   struct TN_Mutex *tmp_mutex;
   _tn_list_for_each_entry(
    29ae:	70 09 90    	mov.w     [w0+30], w2
    29b0:	03 00 37    	bra       0x29b8 <.L144>

000029b2 <.L142>:
         tmp_mutex, struct TN_Mutex, &(task->mutex_queue), mutex_queue
         )
   {
      if (tmp_mutex == mutex){
    29b2:	81 0f 51    	sub.w     w2, w1, [w15]
    29b4:	07 00 32    	bra       Z, 0x29c4 <.L143>
    29b6:	42 01 90    	mov.w     [w2+8], w2

000029b8 <.L144>:
    29b8:	66 01 51    	sub.w     w2, #0x6, w2
    29ba:	66 02 41    	add.w     w2, #0x6, w4
    29bc:	fc 01 40    	add.w     w0, #0x1c, w3
    29be:	83 0f 52    	sub.w     w4, w3, [w15]
    29c0:	f8 ff 3a    	bra       NZ, 0x29b2 <.L142>
    29c2:	00 00 05    	retlw.w   #0x0, w0

000029c4 <.L143>:
         ret = TN_TRUE;
    29c4:	10 00 05    	retlw.w   #0x1, w0
Disassembly of section .text.tn_sys_context_get:

000029c6 <_tn_sys_context_get>:
enum TN_Context tn_sys_context_get(void)
{
   enum TN_Context ret;

   if (_tn_sys_state & TN_STATE_FLAG__SYS_RUNNING){
    29c6:	11 64 80    	mov.w     0xc82, w1
      ret = _tn_arch_inside_isr()
         ? TN_CONTEXT_ISR
         : TN_CONTEXT_TASK;
   } else {
      ret = TN_CONTEXT_NONE;
    29c8:	00 00 eb    	clr.w     w0
    29ca:	01 08 a3    	btst.z    w1, #0x0
    29cc:	07 00 32    	bra       Z, 0x29dc <.L41>
    29ce:	c2 16 02    	call      0x16c2 <__tn_arch_inside_isr>
    29d0:	00 00 00 
    29d2:	80 00 78    	mov.w     w0, w1
    29d4:	10 00 20    	mov.w     #0x1, w0
    29d6:	01 00 e0    	cp0.w     w1
    29d8:	01 00 32    	bra       Z, 0x29dc <.L41>
    29da:	20 00 20    	mov.w     #0x2, w0

000029dc <.L41>:
   }

   return ret;
}
    29dc:	00 00 06    	return    
Disassembly of section .text._check_param_generic:

000029de <__check_param_generic>:
{
   enum TN_RCode rc = TN_RC_OK;

   if (sem == TN_NULL){
      rc = TN_RC_WPARAM;
    29de:	b1 ff 2f    	mov.w     #0xfffb, w1
    29e0:	00 00 e0    	cp0.w     w0
    29e2:	07 00 32    	bra       Z, 0x29f2 <.L15>
   } else if (!_tn_sem_is_valid(sem)){
    29e4:	10 00 78    	mov.w     [w0], w0
    29e6:	d6 2b 02    	call      0x2bd6 <__tn_sem_is_valid.clone.0>
    29e8:	00 00 00 
      rc = TN_RC_INVALID_OBJ;
    29ea:	91 ff 2f    	mov.w     #0xfff9, w1
    29ec:	00 00 e0    	cp0.w     w0
    29ee:	01 00 32    	bra       Z, 0x29f2 <.L15>
    29f0:	80 00 eb    	clr.w     w1

000029f2 <.L15>:
   }

   return rc;
}
    29f2:	01 00 78    	mov.w     w1, w0
    29f4:	00 00 06    	return    

000029f6 <__check_param_generic>:
{
   enum TN_RCode rc = TN_RC_OK;

   if (mutex == TN_NULL){
      rc = TN_RC_WPARAM;
    29f6:	b1 ff 2f    	mov.w     #0xfffb, w1
    29f8:	00 00 e0    	cp0.w     w0
    29fa:	07 00 32    	bra       Z, 0x2a0a <.L43>
   } else if (!_tn_mutex_is_valid(mutex)){
    29fc:	10 00 78    	mov.w     [w0], w0
    29fe:	f2 2b 02    	call      0x2bf2 <.eb>
    2a00:	00 00 00 
      rc = TN_RC_INVALID_OBJ;
    2a02:	91 ff 2f    	mov.w     #0xfff9, w1
    2a04:	00 00 e0    	cp0.w     w0
    2a06:	01 00 32    	bra       Z, 0x2a0a <.L43>
    2a08:	80 00 eb    	clr.w     w1

00002a0a <.L43>:
   }

   return rc;
}
    2a0a:	01 00 78    	mov.w     w1, w0
    2a0c:	00 00 06    	return    

00002a0e <__check_param_generic>:
{
   enum TN_RCode rc = TN_RC_OK;

   if (timer == TN_NULL){
      rc = TN_RC_WPARAM;
    2a0e:	b1 ff 2f    	mov.w     #0xfffb, w1
    2a10:	00 00 e0    	cp0.w     w0
    2a12:	07 00 32    	bra       Z, 0x2a22 <.L3>
   } else if (!_tn_timer_is_valid(timer)){
    2a14:	10 00 78    	mov.w     [w0], w0
    2a16:	00 2c 02    	call      0x2c00 <.eb>
    2a18:	00 00 00 
      rc = TN_RC_INVALID_OBJ;
    2a1a:	91 ff 2f    	mov.w     #0xfff9, w1
    2a1c:	00 00 e0    	cp0.w     w0
    2a1e:	01 00 32    	bra       Z, 0x2a22 <.L3>
    2a20:	80 00 eb    	clr.w     w1

00002a22 <.L3>:
   }

   return rc;
}
    2a22:	01 00 78    	mov.w     w1, w0
    2a24:	00 00 06    	return    
Disassembly of section .text.tn_task_create_wname:

00002a26 <_tn_task_create_wname>:
      void                   *param,
      enum TN_TaskCreateOpt   opts,
      const char             *name
      )
{
    2a26:	88 9f be    	mov.d     w8, [w15++]
    2a28:	00 04 78    	mov.w     w0, w8
    2a2a:	87 04 78    	mov.w     w7, w9
   enum TN_RCode ret = tn_task_create(
    2a2c:	08 00 78    	mov.w     w8, w0
    2a2e:	8e 13 02    	call      0x138e <_tn_task_create>
    2a30:	00 00 00 
         task, task_func, priority, task_stack_low_addr, task_stack_size,
         param, opts
         );

   //-- if task was successfully created, set the name
   if (ret == TN_RC_OK){
    2a32:	00 00 e0    	cp0.w     w0
    2a34:	01 00 3a    	bra       NZ, 0x2a38 <.L122>
      task->name = name;
    2a36:	79 1c 98    	mov.w     w9, [w8+62]

00002a38 <.L122>:
   }

   return ret;
}
    2a38:	4f 04 be    	mov.d     [--w15], w8
    2a3a:	00 00 06    	return    
Disassembly of section .text._tn_list_is_empty:

00002a3c <__tn_list_is_empty>:
/*
 * See comments in the header file tn_list.h
 */
TN_BOOL _tn_list_is_empty(struct TN_ListItem *list)
{
    2a3c:	00 01 78    	mov.w     w0, w2
   return (list->next == list && list->prev == list);
    2a3e:	92 00 90    	mov.w     [w2+2], w1
    2a40:	00 00 eb    	clr.w     w0
    2a42:	82 8f 50    	sub.w     w1, w2, [w15]
    2a44:	05 00 3a    	bra       NZ, 0x2a50 <.L3>
    2a46:	11 80 68    	xor.w     w1, [w1], w0
    2a48:	00 f0 a7    	btsc.w    w0, #0xf
    2a4a:	00 00 ea    	neg.w     w0, w0
    2a4c:	00 00 e9    	dec.w     w0, w0
    2a4e:	4f 00 de    	lsr.w     w0, #0xf, w0

00002a50 <.L3>:
}
    2a50:	00 00 06    	return    
Disassembly of section .text._task_terminate:

00002a52 <__task_terminate>:
 *    * set dormant state (reinitialize everything)
 *    * reitinialize stack
 */
static void _task_terminate(struct TN_Task *task)
{
    2a52:	88 1f 78    	mov.w     w8, [w15++]
    2a54:	00 04 78    	mov.w     w0, w8
#if TN_DEBUG
   if (task->task_state != TN_TASK_STATE_NONE){
      _TN_FATAL_ERROR("");
   }
#endif

   //-- Unlock all mutexes locked by the task
   _tn_mutex_unlock_all_by_task(task);
    2a56:	08 00 78    	mov.w     w8, w0
    2a58:	fe 26 02    	call      0x26fe <.eb>
    2a5a:	00 00 00 

   //-- task is already in the state NONE, so, we just need 
   //   to set dormant state.
   _tn_task_set_dormant(task);
    2a5c:	08 00 78    	mov.w     w8, w0
    2a5e:	e0 2a 02    	call      0x2ae0 <.eb>
    2a60:	00 00 00 
}
    2a62:	4f 04 78    	mov.w     [--w15], w8
    2a64:	00 00 06    	return    
Disassembly of section .text._idle_task_create:

00002a66 <__idle_task_create>:
static _TN_INLINE enum TN_RCode _idle_task_create(
      TN_UWord      *idle_task_stack,
      unsigned int   idle_task_stack_size
      )
{
    2a66:	80 01 78    	mov.w     w0, w3
    2a68:	01 02 78    	mov.w     w1, w4
   return tn_task_create_wname(
    2a6a:	e7 5b 28    	mov.w     #0x85be, w7
    2a6c:	26 00 20    	mov.w     #0x2, w6
    2a6e:	80 02 eb    	clr.w     w5
    2a70:	f2 00 20    	mov.w     #0xf, w2
    2a72:	01 ce 22    	mov.w     #0x2ce0, w1
    2a74:	a0 c8 20    	mov.w     #0xc8a, w0
    2a76:	26 2a 04    	goto      0x2a26 <_tn_task_create_wname>
    2a78:	00 00 00 
Disassembly of section .text:

00002a7a <_SelectChannel>:

// Выбор канала ЦАП и АЦП
void SelectChannel(BYTE channelNumber)
{
    AnalogInputEnable = 0;
    2a7a:	cd 42 a9    	bclr.b    0x2cd, #0x2
    AnalogOutputEnable = 0;
    2a7c:	cd 22 a9    	bclr.b    0x2cd, #0x1
    LATCbits2->AnalogAddress = channelNumber;
    2a7e:	e1 44 80    	mov.w     0x89c, w1
    2a80:	67 00 60    	and.w     w0, #0x7, w0
    2a82:	43 00 dd    	sl.w      w0, #0x3, w0
    2a84:	72 fc 2f    	mov.w     #0xffc7, w2
    2a86:	11 01 61    	and.w     w2, [w1], w2
    2a88:	80 08 71    	ior.w     w2, w0, [w1]
}
    2a8a:	00 00 06    	return    
Disassembly of section .text._sem_wait:

00002a8c <__sem_wait>:
   return rc;
}

static _TN_INLINE enum TN_RCode _sem_wait(struct TN_Sem *sem)
{
    2a8c:	80 00 78    	mov.w     w0, w1
   enum TN_RCode rc = TN_RC_OK;

   //-- decrement semaphore count if possible.
   //   If not, return TN_RC_TIMEOUT
   //   (it is handled in _sem_job_perform() / _sem_job_iperform())
   if (sem->count > 0){
    2a8e:	31 01 90    	mov.w     [w1+6], w2
      sem->count--;
   } else {
      rc = TN_RC_TIMEOUT;
    2a90:	00 80 eb    	setm.w    w0
    2a92:	02 00 e0    	cp0.w     w2
    2a94:	03 00 34    	bra       LE, 0x2a9c <.L3>
    2a96:	00 01 41    	add.w     w2, w0, w2
    2a98:	b2 00 98    	mov.w     w2, [w1+6]
    2a9a:	00 00 eb    	clr.w     w0

00002a9c <.L3>:
   }

   return rc;
}
    2a9c:	00 00 06    	return    
Disassembly of section .text._tn_list_remove_tail:

00002a9e <__tn_list_remove_tail>:
/*
 * See comments in the header file tn_list.h
 */
struct TN_ListItem *_tn_list_remove_tail(struct TN_ListItem *list)
{
    2a9e:	80 00 78    	mov.w     w0, w1
   //-- Remove and return an entry at the tail of the queue.

   struct TN_ListItem *entry;

   if (list->prev == list){
    2aa0:	11 00 78    	mov.w     [w1], w0
    2aa2:	81 0f 50    	sub.w     w0, w1, [w15]
    2aa4:	04 00 32    	bra       Z, 0x2aae <.L13>
      return (struct TN_ListItem *) 0;
   }

   entry = list->prev;
   entry->prev->next = list;
    2aa6:	10 01 78    	mov.w     [w0], w2
    2aa8:	11 01 98    	mov.w     w1, [w2+2]
   list->prev = entry->prev;
    2aaa:	82 08 78    	mov.w     w2, [w1]

   return entry;
    2aac:	00 00 06    	return    

00002aae <.L13>:
    2aae:	00 00 05    	retlw.w   #0x0, w0
Disassembly of section .text._tn_need_context_switch:

00002ab0 <__tn_need_context_switch>:
      //-- Cannot delete not-terminated task
      rc = TN_RC_WSTATE;
   } else {
      _tn_list_remove_entry(&(task->create_queue));
      _tn_tasks_created_cnt--;
    2ab0:	30 64 80    	mov.w     0xc86, w0
    2ab2:	21 64 80    	mov.w     0xc84, w1
    2ab4:	00 80 68    	xor.w     w1, w0, w0
    2ab6:	00 f0 a7    	btsc.w    w0, #0xf
    2ab8:	00 00 ea    	neg.w     w0, w0
    2aba:	00 00 ea    	neg.w     w0, w0
    2abc:	4f 00 de    	lsr.w     w0, #0xf, w0
      task->id_task = TN_ID_NONE;
    2abe:	00 00 06    	return    
Disassembly of section .text.tn_is_task_context:

00002ac0 <_tn_is_task_context>:
      )
{
   enum TN_RCode ret = tn_task_create(
         task, task_func, priority, task_stack_low_addr, task_stack_size,
         param, opts
    2ac0:	c6 29 02    	call      0x29c6 <.eb>
    2ac2:	00 00 00 
    2ac4:	00 00 a2    	btg.w     w0, #0x0
    2ac6:	00 f0 a7    	btsc.w    w0, #0xf
    2ac8:	00 00 ea    	neg.w     w0, w0
    2aca:	00 00 e9    	dec.w     w0, w0
    2acc:	4f 00 de    	lsr.w     w0, #0xf, w0
         );
    2ace:	00 00 06    	return    
Disassembly of section .text.tn_is_isr_context:

00002ad0 <_tn_is_isr_context>:
 */
enum TN_RCode tn_task_suspend(struct TN_Task *task)
{
   enum TN_RCode rc = _check_param_generic(task);

    2ad0:	c6 29 02    	call      0x29c6 <.eb>
    2ad2:	00 00 00 
    2ad4:	00 10 a2    	btg.w     w0, #0x1
    2ad6:	00 f0 a7    	btsc.w    w0, #0xf
    2ad8:	00 00 ea    	neg.w     w0, w0
    2ada:	00 00 e9    	dec.w     w0, w0
    2adc:	4f 00 de    	lsr.w     w0, #0xf, w0
   if (rc != TN_RC_OK){
    2ade:	00 00 06    	return    
Disassembly of section .text._tn_task_set_dormant:

00002ae0 <__tn_task_set_dormant>:
      _TN_FATAL_ERROR("");
   }
#endif

   task->priority    = task->base_priority;      //-- Task curr priority
    2ae0:	e0 10 90    	mov.w     [w0+44], w1
    2ae2:	71 10 98    	mov.w     w1, [w0+46]
   task->task_state  |= TN_TASK_STATE_DORMANT;   //-- Task state
    2ae4:	80 18 90    	mov.w     [w0+48], w1
    2ae6:	01 30 a0    	bset.w    w1, #0x3
    2ae8:	01 18 98    	mov.w     w1, [w0+48]

   task->tslice_count  = 0;
    2aea:	80 00 eb    	clr.w     w1
    2aec:	31 18 98    	mov.w     w1, [w0+54]
}
    2aee:	00 00 06    	return    
Disassembly of section .text._tn_need_context_switch:

00002af0 <__tn_need_context_switch>:
         //   task in the queue
         if (     !(_tn_list_is_empty((struct TN_ListItem *)pri_queue))
               && pri_queue->next->next != pri_queue
            )
         {
    2af0:	30 64 80    	mov.w     0xc86, w0
    2af2:	21 64 80    	mov.w     0xc84, w1
    2af4:	00 80 68    	xor.w     w1, w0, w0
    2af6:	00 f0 a7    	btsc.w    w0, #0xf
    2af8:	00 00 ea    	neg.w     w0, w0
    2afa:	00 00 ea    	neg.w     w0, w0
    2afc:	4f 00 de    	lsr.w     w0, #0xf, w0
            //-- Remove task from head and add it to the tail of
    2afe:	00 00 06    	return    
Disassembly of section .text.tn_is_task_context:

00002b00 <_tn_is_task_context>:
      TN_UWord            *int_stack,
      unsigned int         int_stack_size,
      TN_CBUserTaskCreate *cb_user_task_create,
      TN_CBIdle           *cb_idle
      )
    2b00:	c6 29 02    	call      0x29c6 <.eb>
    2b02:	00 00 00 
    2b04:	00 00 a2    	btg.w     w0, #0x0
    2b06:	00 f0 a7    	btsc.w    w0, #0xf
    2b08:	00 00 ea    	neg.w     w0, w0
    2b0a:	00 00 e9    	dec.w     w0, w0
    2b0c:	4f 00 de    	lsr.w     w0, #0xf, w0
{
    2b0e:	00 00 06    	return    
Disassembly of section .text._tn_need_context_switch:

00002b10 <__tn_need_context_switch>:
      //-- no tasks are waiting for that semaphore,
      //   so, just increase its count if possible.
      if (sem->count < sem->max_count){
         sem->count++;
      } else {
    2b10:	30 64 80    	mov.w     0xc86, w0
    2b12:	21 64 80    	mov.w     0xc84, w1
    2b14:	00 80 68    	xor.w     w1, w0, w0
    2b16:	00 f0 a7    	btsc.w    w0, #0xf
    2b18:	00 00 ea    	neg.w     w0, w0
    2b1a:	00 00 ea    	neg.w     w0, w0
    2b1c:	4f 00 de    	lsr.w     w0, #0xf, w0
         rc = TN_RC_OVERFLOW;
    2b1e:	00 00 06    	return    
Disassembly of section .text.tn_is_isr_context:

00002b20 <_tn_is_isr_context>:
    2b20:	c6 29 02    	call      0x29c6 <.eb>
    2b22:	00 00 00 
    2b24:	00 10 a2    	btg.w     w0, #0x1
    2b26:	00 f0 a7    	btsc.w    w0, #0xf
    2b28:	00 00 ea    	neg.w     w0, w0
    2b2a:	00 00 e9    	dec.w     w0, w0
    2b2c:	4f 00 de    	lsr.w     w0, #0xf, w0
    2b2e:	00 00 06    	return    
Disassembly of section .text.tn_is_task_context:

00002b30 <_tn_is_task_context>:
    2b30:	c6 29 02    	call      0x29c6 <.eb>
    2b32:	00 00 00 
    2b34:	00 00 a2    	btg.w     w0, #0x0
    2b36:	00 f0 a7    	btsc.w    w0, #0xf
    2b38:	00 00 ea    	neg.w     w0, w0
    2b3a:	00 00 e9    	dec.w     w0, w0
    2b3c:	4f 00 de    	lsr.w     w0, #0xf, w0
    2b3e:	00 00 06    	return    
Disassembly of section .text._tn_need_context_switch:

00002b40 <__tn_need_context_switch>:

/**
 * Iterate through all the mutexes that are held by task,
 * for each mutex:
 *
    2b40:	30 64 80    	mov.w     0xc86, w0
    2b42:	21 64 80    	mov.w     0xc84, w1
    2b44:	00 80 68    	xor.w     w1, w0, w0
    2b46:	00 f0 a7    	btsc.w    w0, #0xf
    2b48:	00 00 ea    	neg.w     w0, w0
    2b4a:	00 00 ea    	neg.w     w0, w0
    2b4c:	4f 00 de    	lsr.w     w0, #0xf, w0
 *    - if protocol is TN_MUTEX_PROT_CEILING:
    2b4e:	00 00 06    	return    
Disassembly of section .text.tn_is_task_context:

00002b50 <_tn_is_task_context>:
}

/**
 *    * Unconditionally set lock count to 0. This is needed because mutex
 *      might be deleted 'unexpectedly' when its holder task is deleted
    2b50:	c6 29 02    	call      0x29c6 <.eb>
    2b52:	00 00 00 
    2b54:	00 00 a2    	btg.w     w0, #0x0
    2b56:	00 f0 a7    	btsc.w    w0, #0xf
    2b58:	00 00 ea    	neg.w     w0, w0
    2b5a:	00 00 e9    	dec.w     w0, w0
    2b5c:	4f 00 de    	lsr.w     w0, #0xf, w0
 *    * Remove given mutex from task's locked mutexes list,
    2b5e:	00 00 06    	return    
Disassembly of section .text._tn_mutex_on_task_wait_complete:

00002b60 <__tn_mutex_on_task_wait_complete>:
/**
 * See comments in _tn_mutex.h file
 */
void _tn_mutex_on_task_wait_complete(struct TN_Task *task)
{
    2b60:	80 00 78    	mov.w     w0, w1
   //-- if deadlock was active with given task involved,
   //   it means that deadlock becomes inactive. So, notify user about it
   //   and unlink deadlock lists (for mutexes and tasks involved)
   _cry_deadlock_inactive(
         _get_mutex_by_wait_queque(task->pwait_queue),
    2b62:	31 09 90    	mov.w     [w1+22], w2
    2b64:	00 00 eb    	clr.w     w0
    2b66:	02 00 e0    	cp0.w     w2
    2b68:	01 00 32    	bra       Z, 0x2b6c <.L120>
    2b6a:	02 80 e9    	dec2.w    w2, w0

00002b6c <.L120>:
    2b6c:	ee 22 04    	goto      0x22ee <.eb>
    2b6e:	00 00 00 
Disassembly of section .text._tn_timer_set_func:

00002b70 <__tn_timer_set_func>:
{
   enum TN_RCode rc = TN_RC_OK;

   if (func == TN_NULL){
      rc = TN_RC_WPARAM;
    2b70:	b3 ff 2f    	mov.w     #0xfffb, w3
    2b72:	01 00 e0    	cp0.w     w1
    2b74:	03 00 32    	bra       Z, 0x2b7c <.L19>
   } else {
      timer->func          = func;
    2b76:	31 00 98    	mov.w     w1, [w0+6]
      timer->p_user_data   = p_user_data;
    2b78:	42 00 98    	mov.w     w2, [w0+8]
    2b7a:	80 01 eb    	clr.w     w3

00002b7c <.L19>:
   }

   return rc;
}
    2b7c:	03 00 78    	mov.w     w3, w0
    2b7e:	00 00 06    	return    
Disassembly of section .text._tn_timer_is_active:

00002b80 <__tn_timer_is_active>:
{
   //-- interrupts should be disabled here
   _TN_BUG_ON( !TN_IS_INT_DISABLED() );

   return (!_tn_list_is_empty(&(timer->timer_queue)));
    2b80:	00 80 e8    	inc2.w    w0, w0
    2b82:	3c 2a 02    	call      0x2a3c <.eb>
    2b84:	00 00 00 
    2b86:	00 f0 a7    	btsc.w    w0, #0xf
    2b88:	00 00 ea    	neg.w     w0, w0
    2b8a:	00 00 e9    	dec.w     w0, w0
    2b8c:	4f 00 de    	lsr.w     w0, #0xf, w0
}
    2b8e:	00 00 06    	return    
Disassembly of section .text._tn_context_switch_pend_if_needed:

00002b90 <__tn_context_switch_pend_if_needed>:
}

static _TN_INLINE enum TN_RCode _task_job_perform(
      struct TN_Task *task,
      enum TN_RCode (p_worker)(struct TN_Task *task)
    2b90:	b0 2a 02    	call      0x2ab0 <.eb>
    2b92:	00 00 00 
    2b94:	00 00 e0    	cp0.w     w0
    2b96:	02 00 32    	bra       Z, 0x2b9c <.L15>
      )
    2b98:	2a 16 02    	call      0x162a <__tn_arch_context_switch_pend>
    2b9a:	00 00 00 

00002b9c <.L15>:
    2b9c:	00 00 06    	return    
Disassembly of section .text._tn_task_is_valid.clone.4:

00002b9e <__tn_task_is_valid.clone.4>:
   {
      return TN_RC_WPARAM;
   }

   if (0
    2b9e:	91 f6 2c    	mov.w     #0xcf69, w1
    2ba0:	01 00 68    	xor.w     w0, w1, w0
    2ba2:	00 f0 a7    	btsc.w    w0, #0xf
    2ba4:	00 00 ea    	neg.w     w0, w0
    2ba6:	00 00 e9    	dec.w     w0, w0
    2ba8:	4f 00 de    	lsr.w     w0, #0xf, w0
         || (priority < 0 || priority > (TN_PRIORITIES_CNT - 1))
    2baa:	00 00 06    	return    
Disassembly of section .text._tn_context_switch_pend_if_needed:

00002bac <__tn_context_switch_pend_if_needed>:
            _tn_list_add_tail(
                  &(_tn_tasks_ready_list[priority]),
                  (struct TN_ListItem *)curr_que
                  );
         }
    2bac:	f0 2a 02    	call      0x2af0 <.eb>
    2bae:	00 00 00 
    2bb0:	00 00 e0    	cp0.w     w0
    2bb2:	02 00 32    	bra       Z, 0x2bb8 <.L7>
      }
    2bb4:	2a 16 02    	call      0x162a <__tn_arch_context_switch_pend>
    2bb6:	00 00 00 

00002bb8 <.L7>:
    2bb8:	00 00 06    	return    
Disassembly of section .text._tn_sys_state_flags_clear:

00002bba <__tn_sys_state_flags_clear>:
/**
 * See comments in the file _tn_sys.h
 */
enum TN_StateFlag _tn_sys_state_flags_clear(enum TN_StateFlag flags)
{
    2bba:	80 00 78    	mov.w     w0, w1
   enum TN_StateFlag ret = _tn_sys_state;
    2bbc:	10 64 80    	mov.w     0xc82, w0
   _tn_sys_state &= ~flags;
    2bbe:	12 64 80    	mov.w     0xc82, w2
    2bc0:	81 80 ea    	com.w     w1, w1
    2bc2:	82 80 60    	and.w     w1, w2, w1
    2bc4:	11 64 88    	mov.w     w1, 0xc82
   return ret;
}
    2bc6:	00 00 06    	return    
Disassembly of section .text._tn_context_switch_pend_if_needed:

00002bc8 <__tn_context_switch_pend_if_needed>:
   return rc;
}

static _TN_INLINE enum TN_RCode _sem_wait(struct TN_Sem *sem)
{
    2bc8:	10 2b 02    	call      0x2b10 <.eb>
    2bca:	00 00 00 
    2bcc:	00 00 e0    	cp0.w     w0
    2bce:	02 00 32    	bra       Z, 0x2bd4 <.L7>
   enum TN_RCode rc = TN_RC_OK;
    2bd0:	2a 16 02    	call      0x162a <__tn_arch_context_switch_pend>
    2bd2:	00 00 00 

00002bd4 <.L7>:
    2bd4:	00 00 06    	return    
Disassembly of section .text._tn_sem_is_valid.clone.0:

00002bd6 <__tn_sem_is_valid.clone.0>:
 * Additional param checking when creating semaphore
 */
static _TN_INLINE enum TN_RCode _check_param_create(
      const struct TN_Sem *sem,
      int start_count,
    2bd6:	b1 3e 27    	mov.w     #0x73eb, w1
    2bd8:	01 00 68    	xor.w     w0, w1, w0
    2bda:	00 f0 a7    	btsc.w    w0, #0xf
    2bdc:	00 00 ea    	neg.w     w0, w0
    2bde:	00 00 e9    	dec.w     w0, w0
    2be0:	4f 00 de    	lsr.w     w0, #0xf, w0
      int max_count
    2be2:	00 00 06    	return    
Disassembly of section .text._tn_context_switch_pend_if_needed:

00002be4 <__tn_context_switch_pend_if_needed>:
 *      and check if priority of each task is higher than
 *      our task's base priority
 *
 * Eventually, find out highest priority and set it.
 */
    2be4:	40 2b 02    	call      0x2b40 <.eb>
    2be6:	00 00 00 
    2be8:	00 00 e0    	cp0.w     w0
    2bea:	02 00 32    	bra       Z, 0x2bf0 <.L31>
static void _update_task_priority(struct TN_Task *task)
    2bec:	2a 16 02    	call      0x162a <__tn_arch_context_switch_pend>
    2bee:	00 00 00 

00002bf0 <.L31>:
    2bf0:	00 00 06    	return    
Disassembly of section .text._tn_mutex_is_valid.clone.0:

00002bf2 <__tn_mutex_is_valid.clone.0>:
      rc = TN_RC_WPARAM;
   } else if (    protocol != TN_MUTEX_PROT_CEILING 
               && protocol != TN_MUTEX_PROT_INHERIT)
   {
      rc = TN_RC_WPARAM;
    2bf2:	51 e4 29    	mov.w     #0x9e45, w1
    2bf4:	01 00 68    	xor.w     w0, w1, w0
    2bf6:	00 f0 a7    	btsc.w    w0, #0xf
    2bf8:	00 00 ea    	neg.w     w0, w0
    2bfa:	00 00 e9    	dec.w     w0, w0
    2bfc:	4f 00 de    	lsr.w     w0, #0xf, w0
   } else if (1
    2bfe:	00 00 06    	return    
Disassembly of section .text._tn_timer_is_valid.clone.0:

00002c00 <__tn_timer_is_valid.clone.0>:

   return rc;
}

/*
    2c00:	c1 fb 27    	mov.w     #0x7fbc, w1
    2c02:	01 00 68    	xor.w     w0, w1, w0
    2c04:	00 f0 a7    	btsc.w    w0, #0xf
    2c06:	00 00 ea    	neg.w     w0, w0
    2c08:	00 00 e9    	dec.w     w0, w0
    2c0a:	4f 00 de    	lsr.w     w0, #0xf, w0
 * See comments in the header file (tn_timer.h)
    2c0c:	00 00 06    	return    
Disassembly of section .text.tn_arch_sched_restore:

00002c0e <_tn_arch_sched_restore>:
 * See comments in the file `tn_arch.h`
 */
void tn_arch_sched_restore(TN_UWord sched_state)
{
   TN_BFA(TN_BFA_WR, IEC0, INT0IE, !!sched_state);
    2c0e:	00 00 e0    	cp0.w     w0
    2c10:	02 00 32    	bra       Z, 0x2c16 <.L15>
    2c12:	94 00 a8    	bset.b    0x94, #0x0
    2c14:	00 00 06    	return    

00002c16 <.L15>:
    2c16:	94 00 a9    	bclr.b    0x94, #0x0
    2c18:	00 00 06    	return    
Disassembly of section .text._tn_sys_state_flags_set:

00002c1a <__tn_sys_state_flags_set>:
/**
 * See comments in the file _tn_sys.h
 */
enum TN_StateFlag _tn_sys_state_flags_set(enum TN_StateFlag flags)
{
    2c1a:	00 01 78    	mov.w     w0, w2
   enum TN_StateFlag ret = _tn_sys_state;
    2c1c:	10 64 80    	mov.w     0xc82, w0
   _tn_sys_state |= flags;
    2c1e:	11 64 80    	mov.w     0xc82, w1
    2c20:	82 80 70    	ior.w     w1, w2, w1
    2c22:	11 64 88    	mov.w     w1, 0xc82
   return ret;
}
    2c24:	00 00 06    	return    
Disassembly of section .text._tn_list_add_head:

00002c26 <__tn_list_add_head>:
void _tn_list_add_head(struct TN_ListItem *list, struct TN_ListItem *entry)
{
  //--  Insert an entry at the head of the queue.

   entry->next = list->next;
    2c26:	10 01 90    	mov.w     [w0+2], w2
    2c28:	92 00 98    	mov.w     w2, [w1+2]
   entry->prev = list;
    2c2a:	80 08 78    	mov.w     w0, [w1]
   entry->next->prev = entry;
    2c2c:	01 09 78    	mov.w     w1, [w2]
   list->next = entry;
    2c2e:	11 00 98    	mov.w     w1, [w0+2]
}
    2c30:	00 00 06    	return    
Disassembly of section .text._tn_list_add_tail:

00002c32 <__tn_list_add_tail>:
void _tn_list_add_tail(struct TN_ListItem *list, struct TN_ListItem *entry)
{
  //-- Insert an entry at the tail of the queue.

   entry->next = list;
    2c32:	90 00 98    	mov.w     w0, [w1+2]
   entry->prev = list->prev;
    2c34:	10 01 78    	mov.w     [w0], w2
    2c36:	82 08 78    	mov.w     w2, [w1]
   entry->prev->next = entry;
    2c38:	11 01 98    	mov.w     w1, [w2+2]
   list->prev = entry;
    2c3a:	01 08 78    	mov.w     w1, [w0]
}
    2c3c:	00 00 06    	return    
Disassembly of section .text._tn_list_remove_entry:

00002c3e <__tn_list_remove_entry>:
 */
void _tn_list_remove_entry(struct TN_ListItem *entry)
{
   //--  Remove an entry from the queue.
   entry->prev->next = entry->next;
    2c3e:	90 00 78    	mov.w     [w0], w1
    2c40:	10 01 90    	mov.w     [w0+2], w2
    2c42:	92 00 98    	mov.w     w2, [w1+2]
   entry->next->prev = entry->prev;
    2c44:	10 00 90    	mov.w     [w0+2], w0
    2c46:	01 08 78    	mov.w     w1, [w0]

   //-- NOTE: we shouldn't reset the entry itself, because the pointers in
   //         the removed item are often needed to get the next item of the 
   //         list from which it was just removed.
   //
   //         Typical usage: iterate over the list, check some condition and
   //         probably remove the item. After removal, we are still able
   //         to get the next item.
}
    2c48:	00 00 06    	return    
Disassembly of section .text._tn_list_contains_entry:

00002c4a <__tn_list_contains_entry>:
{
   TN_BOOL ret = TN_FALSE;
   struct TN_ListItem *item;

   _tn_list_for_each(item, list){
    2c4a:	90 00 90    	mov.w     [w0+2], w1
    2c4c:	01 00 37    	bra       0x2c50 <.L16>

00002c4e <.L17>:
    2c4e:	91 00 90    	mov.w     [w1+2], w1

00002c50 <.L16>:
    2c50:	80 8f 50    	sub.w     w1, w0, [w15]
    2c52:	fd ff 3a    	bra       NZ, 0x2c4e <.L17>
      if (item == list){
         ret = TN_TRUE;
         break;
      }
   }

   return ret;
}
    2c54:	00 00 05    	retlw.w   #0x0, w0
Disassembly of section .text._tn_mutex_i_on_task_wait_complete:

00002c56 <__tn_mutex_i_on_task_wait_complete>:
      _TN_FATAL_ERROR();
   }
#endif

   if (task->priority_already_updated){
    2c56:	80 20 90    	mov.w     [w0+64], w1
    2c58:	01 08 a3    	btst.z    w1, #0x0
    2c5a:	02 00 3a    	bra       NZ, 0x2c60 <.L117>
      //-- priority is already updated (in _mutex_do_unlock)
      //   so, just do nothing here
      //   (flag will be cleared in _mutex_do_unlock 
      //   when we exit from `_tn_task_wait_complete()`)
   } else {
      //-- Update priority of the holder of mutex which `task` was waiting
      //   for. If the holder itself waits for some mutex2, update priority
      //   of mutex2's holder, and so on, recursively.
      //
      //   See comments for `_update_holders_priority_recursive()` for details.
      _update_holders_priority_recursive(task);
    2c5c:	7e 25 02    	call      0x257e <.eb>
    2c5e:	00 00 00 

00002c60 <.L117>:
    2c60:	00 00 06    	return    
Disassembly of section .text._task_wait_timeout:

00002c62 <__task_wait_timeout>:
/**
 * This function is called by timer
 */
static void _task_wait_timeout(struct TN_Timer *timer, void *p_user_data)
{
    2c62:	01 00 78    	mov.w     w1, w0
   struct TN_Task *task = (struct TN_Task *)p_user_data;

   _tn_task_wait_complete(task, TN_RC_TIMEOUT);
    2c64:	80 80 eb    	setm.w    w1
    2c66:	4c 28 04    	goto      0x284c <.eb>
    2c68:	00 00 00 
Disassembly of section .text._tn_task_set_suspended:

00002c6a <__tn_task_set_suspended>:
      _TN_FATAL_ERROR("");
   }
#endif

   task->task_state |= TN_TASK_STATE_SUSPEND;
    2c6a:	80 18 90    	mov.w     [w0+48], w1
    2c6c:	01 20 a0    	bset.w    w1, #0x2
    2c6e:	01 18 98    	mov.w     w1, [w0+48]
}
    2c70:	00 00 06    	return    
Disassembly of section .text._tn_task_clear_suspended:

00002c72 <__tn_task_clear_suspended>:
      _TN_FATAL_ERROR("");
   }
#endif

   task->task_state &= ~TN_TASK_STATE_SUSPEND;
    2c72:	80 18 90    	mov.w     [w0+48], w1
    2c74:	01 20 a1    	bclr.w    w1, #0x2
    2c76:	01 18 98    	mov.w     w1, [w0+48]
}
    2c78:	00 00 06    	return    
Disassembly of section .text.tn_arch_sched_dis_save:

00002c7a <_tn_arch_sched_dis_save>:
 * See comments in the file `tn_arch.h`
 */
TN_UWord tn_arch_sched_dis_save(void)
{
   TN_UWord ret = TN_BFA(TN_BFA_RD, IEC0, INT0IE);
    2c7a:	a0 04 80    	mov.w     0x94, w0
    2c7c:	61 00 60    	and.w     w0, #0x1, w0

00002c7e <.bb>:
   TN_BFA(TN_BFA_WR, IEC0, INT0IE, 0);
    2c7e:	94 00 a9    	bclr.b    0x94, #0x0

00002c80 <.eb>:
   return ret;
}
    2c80:	00 00 06    	return    
Disassembly of section .text.tn_sem_signal:

00002c82 <_tn_sem_signal>:
 * See comments in the header file (tn_sem.h)
 */
enum TN_RCode tn_sem_signal(struct TN_Sem *sem)
{
   return _sem_job_perform(sem, _sem_signal, 0);
    2c82:	60 11 b8    	mul.uu    w2, #0x0, w2
    2c84:	21 55 22    	mov.w     #0x2552, w1
    2c86:	0c 1a 04    	goto      0x1a0c <.eb>
    2c88:	00 00 00 
Disassembly of section .text.tn_sem_wait_polling:

00002c8a <_tn_sem_wait_polling>:
 * See comments in the header file (tn_sem.h)
 */
enum TN_RCode tn_sem_wait_polling(struct TN_Sem *sem)
{
   return _sem_job_perform(sem, _sem_wait, 0);
    2c8a:	60 11 b8    	mul.uu    w2, #0x0, w2
    2c8c:	c1 a8 22    	mov.w     #0x2a8c, w1
    2c8e:	0c 1a 04    	goto      0x1a0c <.eb>
    2c90:	00 00 00 
Disassembly of section .text._init_mutex_queue:

00002c92 <__init_mutex_queue>:
#if TN_USE_MUTEXES

static _TN_INLINE void _init_mutex_queue(struct TN_Task *task)
{
   _tn_list_reset(&(task->mutex_queue));
    2c92:	7c 00 40    	add.w     w0, #0x1c, w0
    2c94:	04 2d 04    	goto      0x2d04 <.eb>
    2c96:	00 00 00 
Disassembly of section .text._init_deadlock_list:

00002c98 <__init_deadlock_list>:

#if TN_MUTEX_DEADLOCK_DETECT
static _TN_INLINE void _init_deadlock_list(struct TN_Task *task)
{
   _tn_list_reset(&(task->deadlock_list));
    2c98:	00 02 b0    	add.w     #0x20, w0
    2c9a:	04 2d 04    	goto      0x2d04 <.eb>
    2c9c:	00 00 00 
Disassembly of section .text._tn_task_is_waiting.clone.1:

00002c9e <__tn_task_is_waiting.clone.1>:

//-- Inline functions {{{


/**
    2c9e:	00 00 d1    	lsr.w     w0, w0
    2ca0:	61 00 60    	and.w     w0, #0x1, w0
 * See the comment for tn_task_wakeup, tn_task_iwakeup in the tn_tasks.h
    2ca2:	00 00 06    	return    
Disassembly of section .text._tn_task_is_suspended.clone.2:

00002ca4 <__tn_task_is_suspended.clone.2>:
      //-- task is in WAIT state, so, let's release it from that state,
      //   returning TN_RC_FORCED.
      _tn_task_wait_complete(task, TN_RC_FORCED);
   } else {
      rc = TN_RC_WSTATE;
    2ca4:	42 00 de    	lsr.w     w0, #0x2, w0
    2ca6:	61 00 60    	and.w     w0, #0x1, w0
   }
    2ca8:	00 00 06    	return    
Disassembly of section .text._tn_task_is_dormant.clone.3:

00002caa <__tn_task_is_dormant.clone.3>:
{
   enum TN_RCode rc = _check_param_generic(task);

   if (rc != TN_RC_OK){
      //-- just return rc as it is
    2caa:	43 00 de    	lsr.w     w0, #0x3, w0
    2cac:	61 00 60    	and.w     w0, #0x1, w0
   } else if (!tn_is_task_context()){
    2cae:	00 00 06    	return    
Disassembly of section .text.tn_task_wakeup:

00002cb0 <_tn_task_wakeup>:
 * See comments in the header file (tn_tasks.h)
 */
enum TN_RCode tn_task_wakeup(struct TN_Task *task)
{
   return _task_job_perform(task, _task_wakeup);
    2cb0:	e1 61 22    	mov.w     #0x261e, w1
    2cb2:	50 20 04    	goto      0x2050 <.eb>
    2cb4:	00 00 00 
Disassembly of section .text.tn_task_iwakeup:

00002cb6 <_tn_task_iwakeup>:
 * See comments in the header file (tn_tasks.h)
 */
enum TN_RCode tn_task_iwakeup(struct TN_Task *task)
{
   return _task_job_iperform(task, _task_wakeup);
    2cb6:	e1 61 22    	mov.w     #0x261e, w1
    2cb8:	14 20 04    	goto      0x2014 <.eb>
    2cba:	00 00 00 
Disassembly of section .text.tn_task_activate:

00002cbc <_tn_task_activate>:
 * See comments in the header file (tn_tasks.h)
 */
enum TN_RCode tn_task_activate(struct TN_Task *task)
{
   return _task_job_perform(task, _tn_task_activate);
    2cbc:	61 6b 22    	mov.w     #0x26b6, w1
    2cbe:	50 20 04    	goto      0x2050 <.eb>
    2cc0:	00 00 00 
Disassembly of section .text.tn_task_iactivate:

00002cc2 <_tn_task_iactivate>:
 * See comments in the header file (tn_tasks.h)
 */
enum TN_RCode tn_task_iactivate(struct TN_Task *task)
{
   return _task_job_iperform(task, _tn_task_activate);
    2cc2:	61 6b 22    	mov.w     #0x26b6, w1
    2cc4:	14 20 04    	goto      0x2014 <.eb>
    2cc6:	00 00 00 
Disassembly of section .text.tn_task_release_wait:

00002cc8 <_tn_task_release_wait>:
 * See comments in the header file (tn_tasks.h)
 */
enum TN_RCode tn_task_release_wait(struct TN_Task *task)
{
   return _task_job_perform(task, _task_release_wait);
    2cc8:	c1 7c 22    	mov.w     #0x27cc, w1
    2cca:	50 20 04    	goto      0x2050 <.eb>
    2ccc:	00 00 00 
Disassembly of section .text.tn_task_irelease_wait:

00002cce <_tn_task_irelease_wait>:
 * See comments in the header file (tn_tasks.h)
 */
enum TN_RCode tn_task_irelease_wait(struct TN_Task *task)
{
   return _task_job_iperform(task, _task_release_wait);
    2cce:	c1 7c 22    	mov.w     #0x27cc, w1
    2cd0:	14 20 04    	goto      0x2014 <.eb>
    2cd2:	00 00 00 
Disassembly of section .text._tn_task_exit_nodelete:

00002cd4 <__tn_task_exit_nodelete>:
 * See comment in the _tn_tasks.h file
 */
void _tn_task_exit_nodelete(void)
{
   tn_task_exit((enum TN_TaskExitOpt)(0));
    2cd4:	00 00 eb    	clr.w     w0
    2cd6:	20 23 04    	goto      0x2320 <.eb>
    2cd8:	00 00 00 
Disassembly of section .text._tn_timer_sys_time_get:

00002cda <__tn_timer_sys_time_get>:
struct TN_Task *_tn_next_task_to_run;

// See comments in the internal/_tn_sys.h file
struct TN_Task *_tn_curr_run_task;

    2cda:	00 79 80    	mov.w     0xf20, w0
    2cdc:	11 79 80    	mov.w     0xf22, w1
// See comments in the internal/_tn_sys.h file
    2cde:	00 00 06    	return    
Disassembly of section .text._idle_task_body:

00002ce0 <__idle_task_body>:
{
   //-- enter endless loop with calling user-provided hook function
   for(;;)
   {
      _tn_cb_idle_hook();
    2ce0:	a0 61 80    	mov.w     0xc34, w0
    2ce2:	00 00 01    	call      w0
    2ce4:	fd ff 37    	bra       0x2ce0 <.eb> <.ef> <__idle_task_body> <.L4> <.bb> <.bf> <.text._idle_task_body>
Disassembly of section .text._tn_task_is_suspended.clone.0:

00002ce6 <__tn_task_is_suspended.clone.0>:
{
   //-- volatile is used here only to solve
   //   IAR(c) compiler's high optimization mode problem
   _TN_VOLATILE_WORKAROUND struct TN_ListItem *curr_que;
   _TN_VOLATILE_WORKAROUND struct TN_ListItem *pri_queue;
    2ce6:	42 00 de    	lsr.w     w0, #0x2, w0
    2ce8:	61 00 60    	and.w     w0, #0x1, w0
   _TN_VOLATILE_WORKAROUND int priority = _tn_curr_run_task->priority;
    2cea:	00 00 06    	return    
Disassembly of section .text.tn_cur_task_body_get:

00002cec <_tn_cur_task_body_get>:
 * See comment in tn_sys.h file
 */
TN_TaskBody *tn_cur_task_body_get(void)
{
   return _tn_curr_run_task->task_func_addr;
    2cec:	20 64 80    	mov.w     0xc84, w0
    2cee:	40 10 90    	mov.w     [w0+40], w0
}
    2cf0:	00 00 06    	return    
Disassembly of section .text.tn_sem_isignal:

00002cf2 <_tn_sem_isignal>:
 * See comments in the header file (tn_sem.h)
 */
enum TN_RCode tn_sem_isignal(struct TN_Sem *sem)
{
   return _sem_job_iperform(sem, _sem_signal);
    2cf2:	21 55 22    	mov.w     #0x2552, w1
    2cf4:	8c 20 04    	goto      0x208c <.eb>
    2cf6:	00 00 00 
Disassembly of section .text.tn_sem_wait:

00002cf8 <_tn_sem_wait>:
 * See comments in the header file (tn_sem.h)
 */
enum TN_RCode tn_sem_wait(struct TN_Sem *sem, TN_TickCnt timeout)
{
   return _sem_job_perform(sem, _sem_wait, timeout);
    2cf8:	c1 a8 22    	mov.w     #0x2a8c, w1
    2cfa:	0c 1a 04    	goto      0x1a0c <.eb>
    2cfc:	00 00 00 
Disassembly of section .text.tn_sem_iwait_polling:

00002cfe <_tn_sem_iwait_polling>:
 * See comments in the header file (tn_sem.h)
 */
enum TN_RCode tn_sem_iwait_polling(struct TN_Sem *sem)
{
   return _sem_job_iperform(sem, _sem_wait);
    2cfe:	c1 a8 22    	mov.w     #0x2a8c, w1
    2d00:	8c 20 04    	goto      0x208c <.eb>
    2d02:	00 00 00 
Disassembly of section .text._tn_list_reset:

00002d04 <__tn_list_reset>:
 * See comments in the header file tn_list.h
 */
void _tn_list_reset(struct TN_ListItem *list)
{
   list->prev = list->next = list;
    2d04:	10 00 98    	mov.w     w0, [w0+2]
    2d06:	00 08 78    	mov.w     w0, [w0]
}
    2d08:	00 00 06    	return    
Disassembly of section .text._tn_task_is_waiting.clone.2:

00002d0a <__tn_task_is_waiting.clone.2>:
         task, struct TN_Task, &(mutex->wait_queue), task_queue
         )
   {
      if (task->priority < priority){
         //--  task priority is higher, remember it
    2d0a:	00 00 d1    	lsr.w     w0, w0
    2d0c:	61 00 60    	and.w     w0, #0x1, w0
         priority = task->priority;
    2d0e:	00 00 06    	return    
Disassembly of section .text._tn_task_is_suspended.clone.3:

00002d10 <__tn_task_is_suspended.clone.3>:
         //-- Mutex protocol is 'priority inheritance':
         //   we need to iterate through all the tasks that wait for 
         //   the mutex, checking if task's priority is higher than
         //   `ref_priority`.
         priority = _find_max_blocked_priority(mutex, priority);
    2d10:	42 00 de    	lsr.w     w0, #0x2, w0
    2d12:	61 00 60    	and.w     w0, #0x1, w0
         break;
    2d14:	00 00 06    	return    
Disassembly of section .text.tn_mutex_lock_polling:

00002d16 <_tn_mutex_lock_polling>:
 * See comments in the header file (tn_mutex.h)
 */
enum TN_RCode tn_mutex_lock_polling(struct TN_Mutex *mutex)
{
   return tn_mutex_lock(mutex, 0);
    2d16:	60 11 b8    	mul.uu    w2, #0x0, w2
    2d18:	74 17 04    	goto      0x1774 <.eb>
    2d1a:	00 00 00 
Disassembly of section .text:

00002d1c <_ReadADC8x14>:
//    while(!ADC_Busy);
//    CONVERT_CHANNEL(7,ADC_CREG_CH0,0);
//
//    ADC_CS=1;	
}
    2d1c:	00 00 06    	return    

00002d1e <_ReadADC8x14_0_3>:

void ReadADC8x14_0_3(void)
{
//	ADC_CS=0;
//			//Предполагается, что уже установлен канал 0
//	START_ADC8x14_CONV();//Запуск преобразования.
//	while(!ADC_Busy); //Ожидание окончания преобразования
//	CONVERT_CHANNEL_TO_TMP(ADC_CREG_CH0);
//	START_ADC8x14_CONV();
//	ADC8x14Data[0]=ADC8x14DataTemp;
//	while(!ADC_Busy);
//	CONVERT_CHANNEL_TO_TMP(ADC_CREG_CH0);
//	START_ADC8x14_CONV();
//	ADC8x14Data[0]+=ADC8x14DataTemp;
//	while(!ADC_Busy);
//	CONVERT_CHANNEL_TO_TMP(ADC_CREG_CH0);
//	START_ADC8x14_CONV();
//	ADC8x14Data[0]+=ADC8x14DataTemp;
//	while(!ADC_Busy);
//	CONVERT_CHANNEL_TO_TMP(ADC_CREG_CH1);
//	START_ADC8x14_CONV();
//	ADC8x14Data[0]+=ADC8x14DataTemp;
//	ADC8x14Data[0]=ADC8x14Data[0]>>2;
//	while(!ADC_Busy);
//
//	CONVERT_CHANNEL_TO_TMP(ADC_CREG_CH1);
//	START_ADC8x14_CONV();
//	ADC8x14Data[1]=ADC8x14DataTemp;
//	while(!ADC_Busy);
//	CONVERT_CHANNEL_TO_TMP(ADC_CREG_CH1);
//	START_ADC8x14_CONV();
//	ADC8x14Data[1]+=ADC8x14DataTemp;
//	while(!ADC_Busy);
//	CONVERT_CHANNEL_TO_TMP(ADC_CREG_CH1);
//	START_ADC8x14_CONV();
//	ADC8x14Data[1]+=ADC8x14DataTemp;
//	while(!ADC_Busy);
//	CONVERT_CHANNEL_TO_TMP(ADC_CREG_CH2);
//	START_ADC8x14_CONV();
//	ADC8x14Data[1]+=ADC8x14DataTemp;
//	ADC8x14Data[1]=ADC8x14Data[1]>>2;
//	while(!ADC_Busy);
//
//	CONVERT_CHANNEL_TO_TMP(ADC_CREG_CH2);
//	START_ADC8x14_CONV();
//	ADC8x14Data[2]=ADC8x14DataTemp;
//	while(!ADC_Busy);
//	CONVERT_CHANNEL_TO_TMP(ADC_CREG_CH2);
//	START_ADC8x14_CONV();
//	ADC8x14Data[2]+=ADC8x14DataTemp;
//	while(!ADC_Busy);
//	CONVERT_CHANNEL_TO_TMP(ADC_CREG_CH2);
//	START_ADC8x14_CONV();
//	ADC8x14Data[2]+=ADC8x14DataTemp;
//	while(!ADC_Busy);
//	CONVERT_CHANNEL_TO_TMP(ADC_CREG_CH3);
//	START_ADC8x14_CONV();
//	ADC8x14Data[2]+=ADC8x14DataTemp;
//	ADC8x14Data[2]=ADC8x14Data[2]>>2;
//	while(!ADC_Busy);
//
//	CONVERT_CHANNEL_TO_TMP(ADC_CREG_CH3);
//	START_ADC8x14_CONV();
//	ADC8x14Data[3]=ADC8x14DataTemp;
//	while(!ADC_Busy);
//	CONVERT_CHANNEL_TO_TMP(ADC_CREG_CH3);
//	START_ADC8x14_CONV();
//	ADC8x14Data[3]+=ADC8x14DataTemp;
//	while(!ADC_Busy);
//	CONVERT_CHANNEL_TO_TMP(ADC_CREG_CH3);
//	START_ADC8x14_CONV();
//	ADC8x14Data[3]+=ADC8x14DataTemp;
//	while(!ADC_Busy);
//	CONVERT_CHANNEL_TO_TMP(ADC_CREG_CH0);
//	ADC8x14Data[3]+=ADC8x14DataTemp;
//	ADC8x14Data[3]=ADC8x14Data[3]>>2;
//	
//	ADC_CS=1;
}
    2d1e:	00 00 06    	return    
Disassembly of section .text._tn_task_is_runnable.clone.0:

00002d20 <__tn_task_is_runnable.clone.0>:
#  define   _init_deadlock_list(task)
#endif

#else
#  define   _init_mutex_queue(task)
    2d20:	61 00 60    	and.w     w0, #0x1, w0
#  define   _init_deadlock_list(task)
    2d22:	00 00 06    	return    
Disassembly of section .text._tn_task_stack_end_get:

00002d24 <__tn_task_stack_end_get>:
 */
TN_UWord *_tn_task_stack_end_get(
      struct TN_Task *task
      )
{
    2d24:	30 10 90    	mov.w     [w0+38], w0
   return task->stack_high_addr;
}
    2d26:	00 00 06    	return    
Disassembly of section .text.tn_sys_state_flags_get:

00002d28 <_tn_sys_state_flags_get>:
 * Returns current state flags (_tn_sys_state)
 */
enum TN_StateFlag tn_sys_state_flags_get(void)
{
   return _tn_sys_state;
    2d28:	10 64 80    	mov.w     0xc82, w0
}
    2d2a:	00 00 06    	return    
Disassembly of section .text.tn_callback_deadlock_set:

00002d2c <_tn_callback_deadlock_set>:
 * See comment in tn_sys.h file
 */
void tn_callback_deadlock_set(TN_CBDeadlock *cb)
{
   _tn_cb_deadlock = cb;
    2d2c:	c0 61 88    	mov.w     w0, 0xc38
}
    2d2e:	00 00 06    	return    
Disassembly of section .text.tn_callback_stack_overflow_set:

00002d30 <_tn_callback_stack_overflow_set>:
 * See comment in tn_sys.h file
 */
void tn_callback_stack_overflow_set(TN_CBStackOverflow *cb)
{
   _tn_cb_stack_overflow = cb;
    2d30:	b0 61 88    	mov.w     w0, 0xc36
}
    2d32:	00 00 06    	return    
Disassembly of section .text.tn_cur_task_get:

00002d34 <_tn_cur_task_get>:
 */
struct TN_Task *tn_cur_task_get(void)
{
   return _tn_curr_run_task;
}
    2d34:	20 64 80    	mov.w     0xc84, w0
    2d36:	00 00 06    	return    
Disassembly of section .text._tn_task_is_runnable.clone.1:

00002d38 <__tn_task_is_runnable.clone.1>:
      enum TN_MutexProtocol   protocol,
      int                     ceil_priority
      )
{
   enum TN_RCode rc = TN_RC_OK;
    2d38:	61 00 60    	and.w     w0, #0x1, w0

    2d3a:	00 00 06    	return    
